(lp0
VBasketball/v_Basketball_g01_c01.avi
p1
aVBasketball/v_Basketball_g01_c02.avi
p2
aVBasketball/v_Basketball_g01_c03.avi
p3
aVBasketball/v_Basketball_g01_c04.avi
p4
aVBasketball/v_Basketball_g01_c05.avi
p5
aVBasketball/v_Basketball_g01_c06.avi
p6
aVBasketball/v_Basketball_g01_c07.avi
p7
aVBasketball/v_Basketball_g02_c01.avi
p8
aVBasketball/v_Basketball_g02_c02.avi
p9
aVBasketball/v_Basketball_g02_c03.avi
p10
aVBasketball/v_Basketball_g02_c04.avi
p11
aVBasketball/v_Basketball_g02_c05.avi
p12
aVBasketball/v_Basketball_g02_c06.avi
p13
aVBasketball/v_Basketball_g03_c01.avi
p14
aVBasketball/v_Basketball_g03_c02.avi
p15
aVBasketball/v_Basketball_g03_c03.avi
p16
aVBasketball/v_Basketball_g03_c04.avi
p17
aVBasketball/v_Basketball_g03_c05.avi
p18
aVBasketball/v_Basketball_g03_c06.avi
p19
aVBasketball/v_Basketball_g04_c01.avi
p20
aVBasketball/v_Basketball_g04_c02.avi
p21
aVBasketball/v_Basketball_g04_c03.avi
p22
aVBasketball/v_Basketball_g04_c04.avi
p23
aVBasketball/v_Basketball_g05_c01.avi
p24
aVBasketball/v_Basketball_g05_c02.avi
p25
aVBasketball/v_Basketball_g05_c03.avi
p26
aVBasketball/v_Basketball_g05_c04.avi
p27
aVBasketball/v_Basketball_g06_c01.avi
p28
aVBasketball/v_Basketball_g06_c02.avi
p29
aVBasketball/v_Basketball_g06_c03.avi
p30
aVBasketball/v_Basketball_g06_c04.avi
p31
aVBasketball/v_Basketball_g07_c01.avi
p32
aVBasketball/v_Basketball_g07_c02.avi
p33
aVBasketball/v_Basketball_g07_c03.avi
p34
aVBasketball/v_Basketball_g07_c04.avi
p35
aVBasketballDunk/v_BasketballDunk_g01_c01.avi
p36
aVBasketballDunk/v_BasketballDunk_g01_c02.avi
p37
aVBasketballDunk/v_BasketballDunk_g01_c03.avi
p38
aVBasketballDunk/v_BasketballDunk_g01_c04.avi
p39
aVBasketballDunk/v_BasketballDunk_g01_c05.avi
p40
aVBasketballDunk/v_BasketballDunk_g01_c06.avi
p41
aVBasketballDunk/v_BasketballDunk_g01_c07.avi
p42
aVBasketballDunk/v_BasketballDunk_g02_c01.avi
p43
aVBasketballDunk/v_BasketballDunk_g02_c02.avi
p44
aVBasketballDunk/v_BasketballDunk_g02_c03.avi
p45
aVBasketballDunk/v_BasketballDunk_g02_c04.avi
p46
aVBasketballDunk/v_BasketballDunk_g03_c01.avi
p47
aVBasketballDunk/v_BasketballDunk_g03_c02.avi
p48
aVBasketballDunk/v_BasketballDunk_g03_c03.avi
p49
aVBasketballDunk/v_BasketballDunk_g03_c04.avi
p50
aVBasketballDunk/v_BasketballDunk_g03_c05.avi
p51
aVBasketballDunk/v_BasketballDunk_g03_c06.avi
p52
aVBasketballDunk/v_BasketballDunk_g04_c01.avi
p53
aVBasketballDunk/v_BasketballDunk_g04_c02.avi
p54
aVBasketballDunk/v_BasketballDunk_g04_c03.avi
p55
aVBasketballDunk/v_BasketballDunk_g04_c04.avi
p56
aVBasketballDunk/v_BasketballDunk_g05_c01.avi
p57
aVBasketballDunk/v_BasketballDunk_g05_c02.avi
p58
aVBasketballDunk/v_BasketballDunk_g05_c03.avi
p59
aVBasketballDunk/v_BasketballDunk_g05_c04.avi
p60
aVBasketballDunk/v_BasketballDunk_g05_c05.avi
p61
aVBasketballDunk/v_BasketballDunk_g05_c06.avi
p62
aVBasketballDunk/v_BasketballDunk_g06_c01.avi
p63
aVBasketballDunk/v_BasketballDunk_g06_c02.avi
p64
aVBasketballDunk/v_BasketballDunk_g06_c03.avi
p65
aVBasketballDunk/v_BasketballDunk_g06_c04.avi
p66
aVBasketballDunk/v_BasketballDunk_g07_c01.avi
p67
aVBasketballDunk/v_BasketballDunk_g07_c02.avi
p68
aVBasketballDunk/v_BasketballDunk_g07_c03.avi
p69
aVBasketballDunk/v_BasketballDunk_g07_c04.avi
p70
aVBasketballDunk/v_BasketballDunk_g07_c05.avi
p71
aVBasketballDunk/v_BasketballDunk_g07_c06.avi
p72
aVBiking/v_Biking_g01_c01.avi
p73
aVBiking/v_Biking_g01_c02.avi
p74
aVBiking/v_Biking_g01_c03.avi
p75
aVBiking/v_Biking_g01_c04.avi
p76
aVBiking/v_Biking_g02_c01.avi
p77
aVBiking/v_Biking_g02_c02.avi
p78
aVBiking/v_Biking_g02_c03.avi
p79
aVBiking/v_Biking_g02_c04.avi
p80
aVBiking/v_Biking_g02_c05.avi
p81
aVBiking/v_Biking_g02_c06.avi
p82
aVBiking/v_Biking_g02_c07.avi
p83
aVBiking/v_Biking_g03_c01.avi
p84
aVBiking/v_Biking_g03_c02.avi
p85
aVBiking/v_Biking_g03_c03.avi
p86
aVBiking/v_Biking_g03_c04.avi
p87
aVBiking/v_Biking_g04_c01.avi
p88
aVBiking/v_Biking_g04_c02.avi
p89
aVBiking/v_Biking_g04_c03.avi
p90
aVBiking/v_Biking_g04_c04.avi
p91
aVBiking/v_Biking_g04_c05.avi
p92
aVBiking/v_Biking_g05_c01.avi
p93
aVBiking/v_Biking_g05_c02.avi
p94
aVBiking/v_Biking_g05_c03.avi
p95
aVBiking/v_Biking_g05_c04.avi
p96
aVBiking/v_Biking_g05_c05.avi
p97
aVBiking/v_Biking_g05_c06.avi
p98
aVBiking/v_Biking_g05_c07.avi
p99
aVBiking/v_Biking_g06_c01.avi
p100
aVBiking/v_Biking_g06_c02.avi
p101
aVBiking/v_Biking_g06_c03.avi
p102
aVBiking/v_Biking_g06_c04.avi
p103
aVBiking/v_Biking_g06_c05.avi
p104
aVBiking/v_Biking_g07_c01.avi
p105
aVBiking/v_Biking_g07_c02.avi
p106
aVBiking/v_Biking_g07_c03.avi
p107
aVBiking/v_Biking_g07_c04.avi
p108
aVBiking/v_Biking_g07_c05.avi
p109
aVBiking/v_Biking_g07_c06.avi
p110
aVCliffDiving/v_CliffDiving_g01_c01.avi
p111
aVCliffDiving/v_CliffDiving_g01_c02.avi
p112
aVCliffDiving/v_CliffDiving_g01_c03.avi
p113
aVCliffDiving/v_CliffDiving_g01_c04.avi
p114
aVCliffDiving/v_CliffDiving_g01_c05.avi
p115
aVCliffDiving/v_CliffDiving_g01_c06.avi
p116
aVCliffDiving/v_CliffDiving_g02_c01.avi
p117
aVCliffDiving/v_CliffDiving_g02_c02.avi
p118
aVCliffDiving/v_CliffDiving_g02_c03.avi
p119
aVCliffDiving/v_CliffDiving_g02_c04.avi
p120
aVCliffDiving/v_CliffDiving_g03_c01.avi
p121
aVCliffDiving/v_CliffDiving_g03_c02.avi
p122
aVCliffDiving/v_CliffDiving_g03_c03.avi
p123
aVCliffDiving/v_CliffDiving_g03_c04.avi
p124
aVCliffDiving/v_CliffDiving_g03_c05.avi
p125
aVCliffDiving/v_CliffDiving_g04_c01.avi
p126
aVCliffDiving/v_CliffDiving_g04_c02.avi
p127
aVCliffDiving/v_CliffDiving_g04_c03.avi
p128
aVCliffDiving/v_CliffDiving_g04_c04.avi
p129
aVCliffDiving/v_CliffDiving_g05_c01.avi
p130
aVCliffDiving/v_CliffDiving_g05_c02.avi
p131
aVCliffDiving/v_CliffDiving_g05_c03.avi
p132
aVCliffDiving/v_CliffDiving_g05_c04.avi
p133
aVCliffDiving/v_CliffDiving_g05_c05.avi
p134
aVCliffDiving/v_CliffDiving_g05_c06.avi
p135
aVCliffDiving/v_CliffDiving_g05_c07.avi
p136
aVCliffDiving/v_CliffDiving_g06_c01.avi
p137
aVCliffDiving/v_CliffDiving_g06_c02.avi
p138
aVCliffDiving/v_CliffDiving_g06_c03.avi
p139
aVCliffDiving/v_CliffDiving_g06_c04.avi
p140
aVCliffDiving/v_CliffDiving_g06_c05.avi
p141
aVCliffDiving/v_CliffDiving_g06_c06.avi
p142
aVCliffDiving/v_CliffDiving_g06_c07.avi
p143
aVCliffDiving/v_CliffDiving_g07_c01.avi
p144
aVCliffDiving/v_CliffDiving_g07_c02.avi
p145
aVCliffDiving/v_CliffDiving_g07_c03.avi
p146
aVCliffDiving/v_CliffDiving_g07_c04.avi
p147
aVCliffDiving/v_CliffDiving_g07_c05.avi
p148
aVCliffDiving/v_CliffDiving_g07_c06.avi
p149
aVCricketBowling/v_CricketBowling_g01_c01.avi
p150
aVCricketBowling/v_CricketBowling_g01_c02.avi
p151
aVCricketBowling/v_CricketBowling_g01_c03.avi
p152
aVCricketBowling/v_CricketBowling_g01_c04.avi
p153
aVCricketBowling/v_CricketBowling_g01_c05.avi
p154
aVCricketBowling/v_CricketBowling_g01_c06.avi
p155
aVCricketBowling/v_CricketBowling_g01_c07.avi
p156
aVCricketBowling/v_CricketBowling_g02_c01.avi
p157
aVCricketBowling/v_CricketBowling_g02_c02.avi
p158
aVCricketBowling/v_CricketBowling_g02_c03.avi
p159
aVCricketBowling/v_CricketBowling_g02_c04.avi
p160
aVCricketBowling/v_CricketBowling_g02_c05.avi
p161
aVCricketBowling/v_CricketBowling_g02_c06.avi
p162
aVCricketBowling/v_CricketBowling_g02_c07.avi
p163
aVCricketBowling/v_CricketBowling_g03_c01.avi
p164
aVCricketBowling/v_CricketBowling_g03_c02.avi
p165
aVCricketBowling/v_CricketBowling_g03_c03.avi
p166
aVCricketBowling/v_CricketBowling_g03_c04.avi
p167
aVCricketBowling/v_CricketBowling_g04_c01.avi
p168
aVCricketBowling/v_CricketBowling_g04_c02.avi
p169
aVCricketBowling/v_CricketBowling_g04_c03.avi
p170
aVCricketBowling/v_CricketBowling_g04_c04.avi
p171
aVCricketBowling/v_CricketBowling_g04_c05.avi
p172
aVCricketBowling/v_CricketBowling_g05_c01.avi
p173
aVCricketBowling/v_CricketBowling_g05_c02.avi
p174
aVCricketBowling/v_CricketBowling_g05_c03.avi
p175
aVCricketBowling/v_CricketBowling_g05_c04.avi
p176
aVCricketBowling/v_CricketBowling_g06_c01.avi
p177
aVCricketBowling/v_CricketBowling_g06_c02.avi
p178
aVCricketBowling/v_CricketBowling_g06_c03.avi
p179
aVCricketBowling/v_CricketBowling_g06_c04.avi
p180
aVCricketBowling/v_CricketBowling_g06_c05.avi
p181
aVCricketBowling/v_CricketBowling_g07_c01.avi
p182
aVCricketBowling/v_CricketBowling_g07_c02.avi
p183
aVCricketBowling/v_CricketBowling_g07_c03.avi
p184
aVCricketBowling/v_CricketBowling_g07_c04.avi
p185
aVDiving/v_Diving_g01_c01.avi
p186
aVDiving/v_Diving_g01_c02.avi
p187
aVDiving/v_Diving_g01_c03.avi
p188
aVDiving/v_Diving_g01_c04.avi
p189
aVDiving/v_Diving_g01_c05.avi
p190
aVDiving/v_Diving_g01_c06.avi
p191
aVDiving/v_Diving_g01_c07.avi
p192
aVDiving/v_Diving_g02_c01.avi
p193
aVDiving/v_Diving_g02_c02.avi
p194
aVDiving/v_Diving_g02_c03.avi
p195
aVDiving/v_Diving_g02_c04.avi
p196
aVDiving/v_Diving_g02_c05.avi
p197
aVDiving/v_Diving_g02_c06.avi
p198
aVDiving/v_Diving_g02_c07.avi
p199
aVDiving/v_Diving_g03_c01.avi
p200
aVDiving/v_Diving_g03_c02.avi
p201
aVDiving/v_Diving_g03_c03.avi
p202
aVDiving/v_Diving_g03_c04.avi
p203
aVDiving/v_Diving_g03_c05.avi
p204
aVDiving/v_Diving_g03_c06.avi
p205
aVDiving/v_Diving_g03_c07.avi
p206
aVDiving/v_Diving_g04_c01.avi
p207
aVDiving/v_Diving_g04_c02.avi
p208
aVDiving/v_Diving_g04_c03.avi
p209
aVDiving/v_Diving_g04_c04.avi
p210
aVDiving/v_Diving_g04_c05.avi
p211
aVDiving/v_Diving_g04_c06.avi
p212
aVDiving/v_Diving_g04_c07.avi
p213
aVDiving/v_Diving_g05_c01.avi
p214
aVDiving/v_Diving_g05_c02.avi
p215
aVDiving/v_Diving_g05_c03.avi
p216
aVDiving/v_Diving_g05_c04.avi
p217
aVDiving/v_Diving_g05_c05.avi
p218
aVDiving/v_Diving_g05_c06.avi
p219
aVDiving/v_Diving_g06_c01.avi
p220
aVDiving/v_Diving_g06_c02.avi
p221
aVDiving/v_Diving_g06_c03.avi
p222
aVDiving/v_Diving_g06_c04.avi
p223
aVDiving/v_Diving_g06_c05.avi
p224
aVDiving/v_Diving_g06_c06.avi
p225
aVDiving/v_Diving_g06_c07.avi
p226
aVDiving/v_Diving_g07_c01.avi
p227
aVDiving/v_Diving_g07_c02.avi
p228
aVDiving/v_Diving_g07_c03.avi
p229
aVDiving/v_Diving_g07_c04.avi
p230
aVFencing/v_Fencing_g01_c01.avi
p231
aVFencing/v_Fencing_g01_c02.avi
p232
aVFencing/v_Fencing_g01_c03.avi
p233
aVFencing/v_Fencing_g01_c04.avi
p234
aVFencing/v_Fencing_g01_c05.avi
p235
aVFencing/v_Fencing_g01_c06.avi
p236
aVFencing/v_Fencing_g02_c01.avi
p237
aVFencing/v_Fencing_g02_c02.avi
p238
aVFencing/v_Fencing_g02_c03.avi
p239
aVFencing/v_Fencing_g02_c04.avi
p240
aVFencing/v_Fencing_g02_c05.avi
p241
aVFencing/v_Fencing_g03_c01.avi
p242
aVFencing/v_Fencing_g03_c02.avi
p243
aVFencing/v_Fencing_g03_c03.avi
p244
aVFencing/v_Fencing_g03_c04.avi
p245
aVFencing/v_Fencing_g03_c05.avi
p246
aVFencing/v_Fencing_g04_c01.avi
p247
aVFencing/v_Fencing_g04_c02.avi
p248
aVFencing/v_Fencing_g04_c03.avi
p249
aVFencing/v_Fencing_g04_c04.avi
p250
aVFencing/v_Fencing_g04_c05.avi
p251
aVFencing/v_Fencing_g05_c01.avi
p252
aVFencing/v_Fencing_g05_c02.avi
p253
aVFencing/v_Fencing_g05_c03.avi
p254
aVFencing/v_Fencing_g05_c04.avi
p255
aVFencing/v_Fencing_g05_c05.avi
p256
aVFencing/v_Fencing_g06_c01.avi
p257
aVFencing/v_Fencing_g06_c02.avi
p258
aVFencing/v_Fencing_g06_c03.avi
p259
aVFencing/v_Fencing_g06_c04.avi
p260
aVFencing/v_Fencing_g07_c01.avi
p261
aVFencing/v_Fencing_g07_c02.avi
p262
aVFencing/v_Fencing_g07_c03.avi
p263
aVFencing/v_Fencing_g07_c04.avi
p264
aVFloorGymnastics/v_FloorGymnastics_g01_c01.avi
p265
aVFloorGymnastics/v_FloorGymnastics_g01_c02.avi
p266
aVFloorGymnastics/v_FloorGymnastics_g01_c03.avi
p267
aVFloorGymnastics/v_FloorGymnastics_g01_c04.avi
p268
aVFloorGymnastics/v_FloorGymnastics_g01_c05.avi
p269
aVFloorGymnastics/v_FloorGymnastics_g02_c01.avi
p270
aVFloorGymnastics/v_FloorGymnastics_g02_c02.avi
p271
aVFloorGymnastics/v_FloorGymnastics_g02_c03.avi
p272
aVFloorGymnastics/v_FloorGymnastics_g02_c04.avi
p273
aVFloorGymnastics/v_FloorGymnastics_g03_c01.avi
p274
aVFloorGymnastics/v_FloorGymnastics_g03_c02.avi
p275
aVFloorGymnastics/v_FloorGymnastics_g03_c03.avi
p276
aVFloorGymnastics/v_FloorGymnastics_g03_c04.avi
p277
aVFloorGymnastics/v_FloorGymnastics_g04_c01.avi
p278
aVFloorGymnastics/v_FloorGymnastics_g04_c02.avi
p279
aVFloorGymnastics/v_FloorGymnastics_g04_c03.avi
p280
aVFloorGymnastics/v_FloorGymnastics_g04_c04.avi
p281
aVFloorGymnastics/v_FloorGymnastics_g04_c05.avi
p282
aVFloorGymnastics/v_FloorGymnastics_g05_c01.avi
p283
aVFloorGymnastics/v_FloorGymnastics_g05_c02.avi
p284
aVFloorGymnastics/v_FloorGymnastics_g05_c03.avi
p285
aVFloorGymnastics/v_FloorGymnastics_g05_c04.avi
p286
aVFloorGymnastics/v_FloorGymnastics_g06_c01.avi
p287
aVFloorGymnastics/v_FloorGymnastics_g06_c02.avi
p288
aVFloorGymnastics/v_FloorGymnastics_g06_c03.avi
p289
aVFloorGymnastics/v_FloorGymnastics_g06_c04.avi
p290
aVFloorGymnastics/v_FloorGymnastics_g06_c05.avi
p291
aVFloorGymnastics/v_FloorGymnastics_g06_c06.avi
p292
aVFloorGymnastics/v_FloorGymnastics_g06_c07.avi
p293
aVFloorGymnastics/v_FloorGymnastics_g07_c01.avi
p294
aVFloorGymnastics/v_FloorGymnastics_g07_c02.avi
p295
aVFloorGymnastics/v_FloorGymnastics_g07_c03.avi
p296
aVFloorGymnastics/v_FloorGymnastics_g07_c04.avi
p297
aVFloorGymnastics/v_FloorGymnastics_g07_c05.avi
p298
aVFloorGymnastics/v_FloorGymnastics_g07_c06.avi
p299
aVFloorGymnastics/v_FloorGymnastics_g07_c07.avi
p300
aVGolfSwing/v_GolfSwing_g01_c01.avi
p301
aVGolfSwing/v_GolfSwing_g01_c02.avi
p302
aVGolfSwing/v_GolfSwing_g01_c03.avi
p303
aVGolfSwing/v_GolfSwing_g01_c04.avi
p304
aVGolfSwing/v_GolfSwing_g01_c05.avi
p305
aVGolfSwing/v_GolfSwing_g01_c06.avi
p306
aVGolfSwing/v_GolfSwing_g02_c01.avi
p307
aVGolfSwing/v_GolfSwing_g02_c02.avi
p308
aVGolfSwing/v_GolfSwing_g02_c03.avi
p309
aVGolfSwing/v_GolfSwing_g02_c04.avi
p310
aVGolfSwing/v_GolfSwing_g03_c01.avi
p311
aVGolfSwing/v_GolfSwing_g03_c02.avi
p312
aVGolfSwing/v_GolfSwing_g03_c03.avi
p313
aVGolfSwing/v_GolfSwing_g03_c04.avi
p314
aVGolfSwing/v_GolfSwing_g03_c05.avi
p315
aVGolfSwing/v_GolfSwing_g03_c06.avi
p316
aVGolfSwing/v_GolfSwing_g03_c07.avi
p317
aVGolfSwing/v_GolfSwing_g04_c01.avi
p318
aVGolfSwing/v_GolfSwing_g04_c02.avi
p319
aVGolfSwing/v_GolfSwing_g04_c03.avi
p320
aVGolfSwing/v_GolfSwing_g04_c04.avi
p321
aVGolfSwing/v_GolfSwing_g04_c05.avi
p322
aVGolfSwing/v_GolfSwing_g04_c06.avi
p323
aVGolfSwing/v_GolfSwing_g05_c01.avi
p324
aVGolfSwing/v_GolfSwing_g05_c02.avi
p325
aVGolfSwing/v_GolfSwing_g05_c03.avi
p326
aVGolfSwing/v_GolfSwing_g05_c04.avi
p327
aVGolfSwing/v_GolfSwing_g05_c05.avi
p328
aVGolfSwing/v_GolfSwing_g05_c06.avi
p329
aVGolfSwing/v_GolfSwing_g05_c07.avi
p330
aVGolfSwing/v_GolfSwing_g06_c01.avi
p331
aVGolfSwing/v_GolfSwing_g06_c02.avi
p332
aVGolfSwing/v_GolfSwing_g06_c03.avi
p333
aVGolfSwing/v_GolfSwing_g06_c04.avi
p334
aVGolfSwing/v_GolfSwing_g07_c01.avi
p335
aVGolfSwing/v_GolfSwing_g07_c02.avi
p336
aVGolfSwing/v_GolfSwing_g07_c03.avi
p337
aVGolfSwing/v_GolfSwing_g07_c04.avi
p338
aVGolfSwing/v_GolfSwing_g07_c05.avi
p339
aVHorseRiding/v_HorseRiding_g01_c01.avi
p340
aVHorseRiding/v_HorseRiding_g01_c02.avi
p341
aVHorseRiding/v_HorseRiding_g01_c03.avi
p342
aVHorseRiding/v_HorseRiding_g01_c04.avi
p343
aVHorseRiding/v_HorseRiding_g01_c05.avi
p344
aVHorseRiding/v_HorseRiding_g01_c06.avi
p345
aVHorseRiding/v_HorseRiding_g01_c07.avi
p346
aVHorseRiding/v_HorseRiding_g02_c01.avi
p347
aVHorseRiding/v_HorseRiding_g02_c02.avi
p348
aVHorseRiding/v_HorseRiding_g02_c03.avi
p349
aVHorseRiding/v_HorseRiding_g02_c04.avi
p350
aVHorseRiding/v_HorseRiding_g02_c05.avi
p351
aVHorseRiding/v_HorseRiding_g02_c06.avi
p352
aVHorseRiding/v_HorseRiding_g02_c07.avi
p353
aVHorseRiding/v_HorseRiding_g03_c01.avi
p354
aVHorseRiding/v_HorseRiding_g03_c02.avi
p355
aVHorseRiding/v_HorseRiding_g03_c03.avi
p356
aVHorseRiding/v_HorseRiding_g03_c04.avi
p357
aVHorseRiding/v_HorseRiding_g03_c05.avi
p358
aVHorseRiding/v_HorseRiding_g03_c06.avi
p359
aVHorseRiding/v_HorseRiding_g03_c07.avi
p360
aVHorseRiding/v_HorseRiding_g04_c01.avi
p361
aVHorseRiding/v_HorseRiding_g04_c02.avi
p362
aVHorseRiding/v_HorseRiding_g04_c03.avi
p363
aVHorseRiding/v_HorseRiding_g04_c04.avi
p364
aVHorseRiding/v_HorseRiding_g04_c05.avi
p365
aVHorseRiding/v_HorseRiding_g04_c06.avi
p366
aVHorseRiding/v_HorseRiding_g04_c07.avi
p367
aVHorseRiding/v_HorseRiding_g05_c01.avi
p368
aVHorseRiding/v_HorseRiding_g05_c02.avi
p369
aVHorseRiding/v_HorseRiding_g05_c03.avi
p370
aVHorseRiding/v_HorseRiding_g05_c04.avi
p371
aVHorseRiding/v_HorseRiding_g05_c05.avi
p372
aVHorseRiding/v_HorseRiding_g05_c06.avi
p373
aVHorseRiding/v_HorseRiding_g05_c07.avi
p374
aVHorseRiding/v_HorseRiding_g06_c01.avi
p375
aVHorseRiding/v_HorseRiding_g06_c02.avi
p376
aVHorseRiding/v_HorseRiding_g06_c03.avi
p377
aVHorseRiding/v_HorseRiding_g06_c04.avi
p378
aVHorseRiding/v_HorseRiding_g06_c05.avi
p379
aVHorseRiding/v_HorseRiding_g06_c06.avi
p380
aVHorseRiding/v_HorseRiding_g06_c07.avi
p381
aVHorseRiding/v_HorseRiding_g07_c01.avi
p382
aVHorseRiding/v_HorseRiding_g07_c02.avi
p383
aVHorseRiding/v_HorseRiding_g07_c03.avi
p384
aVHorseRiding/v_HorseRiding_g07_c04.avi
p385
aVHorseRiding/v_HorseRiding_g07_c05.avi
p386
aVHorseRiding/v_HorseRiding_g07_c06.avi
p387
aVHorseRiding/v_HorseRiding_g07_c07.avi
p388
aVIceDancing/v_IceDancing_g01_c01.avi
p389
aVIceDancing/v_IceDancing_g01_c02.avi
p390
aVIceDancing/v_IceDancing_g01_c03.avi
p391
aVIceDancing/v_IceDancing_g01_c04.avi
p392
aVIceDancing/v_IceDancing_g01_c05.avi
p393
aVIceDancing/v_IceDancing_g01_c06.avi
p394
aVIceDancing/v_IceDancing_g01_c07.avi
p395
aVIceDancing/v_IceDancing_g02_c01.avi
p396
aVIceDancing/v_IceDancing_g02_c02.avi
p397
aVIceDancing/v_IceDancing_g02_c03.avi
p398
aVIceDancing/v_IceDancing_g02_c04.avi
p399
aVIceDancing/v_IceDancing_g02_c05.avi
p400
aVIceDancing/v_IceDancing_g02_c06.avi
p401
aVIceDancing/v_IceDancing_g02_c07.avi
p402
aVIceDancing/v_IceDancing_g03_c01.avi
p403
aVIceDancing/v_IceDancing_g03_c02.avi
p404
aVIceDancing/v_IceDancing_g03_c03.avi
p405
aVIceDancing/v_IceDancing_g03_c04.avi
p406
aVIceDancing/v_IceDancing_g03_c05.avi
p407
aVIceDancing/v_IceDancing_g03_c06.avi
p408
aVIceDancing/v_IceDancing_g04_c01.avi
p409
aVIceDancing/v_IceDancing_g04_c02.avi
p410
aVIceDancing/v_IceDancing_g04_c03.avi
p411
aVIceDancing/v_IceDancing_g04_c04.avi
p412
aVIceDancing/v_IceDancing_g04_c05.avi
p413
aVIceDancing/v_IceDancing_g04_c06.avi
p414
aVIceDancing/v_IceDancing_g04_c07.avi
p415
aVIceDancing/v_IceDancing_g05_c01.avi
p416
aVIceDancing/v_IceDancing_g05_c02.avi
p417
aVIceDancing/v_IceDancing_g05_c03.avi
p418
aVIceDancing/v_IceDancing_g05_c04.avi
p419
aVIceDancing/v_IceDancing_g05_c05.avi
p420
aVIceDancing/v_IceDancing_g05_c06.avi
p421
aVIceDancing/v_IceDancing_g06_c01.avi
p422
aVIceDancing/v_IceDancing_g06_c02.avi
p423
aVIceDancing/v_IceDancing_g06_c03.avi
p424
aVIceDancing/v_IceDancing_g06_c04.avi
p425
aVIceDancing/v_IceDancing_g06_c05.avi
p426
aVIceDancing/v_IceDancing_g06_c06.avi
p427
aVIceDancing/v_IceDancing_g07_c01.avi
p428
aVIceDancing/v_IceDancing_g07_c02.avi
p429
aVIceDancing/v_IceDancing_g07_c03.avi
p430
aVIceDancing/v_IceDancing_g07_c04.avi
p431
aVIceDancing/v_IceDancing_g07_c05.avi
p432
aVIceDancing/v_IceDancing_g07_c06.avi
p433
aVIceDancing/v_IceDancing_g07_c07.avi
p434
aVLongJump/v_LongJump_g01_c01.avi
p435
aVLongJump/v_LongJump_g01_c02.avi
p436
aVLongJump/v_LongJump_g01_c03.avi
p437
aVLongJump/v_LongJump_g01_c04.avi
p438
aVLongJump/v_LongJump_g01_c05.avi
p439
aVLongJump/v_LongJump_g01_c06.avi
p440
aVLongJump/v_LongJump_g01_c07.avi
p441
aVLongJump/v_LongJump_g02_c01.avi
p442
aVLongJump/v_LongJump_g02_c02.avi
p443
aVLongJump/v_LongJump_g02_c03.avi
p444
aVLongJump/v_LongJump_g02_c04.avi
p445
aVLongJump/v_LongJump_g02_c05.avi
p446
aVLongJump/v_LongJump_g03_c01.avi
p447
aVLongJump/v_LongJump_g03_c02.avi
p448
aVLongJump/v_LongJump_g03_c03.avi
p449
aVLongJump/v_LongJump_g03_c04.avi
p450
aVLongJump/v_LongJump_g03_c05.avi
p451
aVLongJump/v_LongJump_g03_c06.avi
p452
aVLongJump/v_LongJump_g04_c01.avi
p453
aVLongJump/v_LongJump_g04_c02.avi
p454
aVLongJump/v_LongJump_g04_c03.avi
p455
aVLongJump/v_LongJump_g04_c04.avi
p456
aVLongJump/v_LongJump_g04_c05.avi
p457
aVLongJump/v_LongJump_g04_c06.avi
p458
aVLongJump/v_LongJump_g04_c07.avi
p459
aVLongJump/v_LongJump_g05_c01.avi
p460
aVLongJump/v_LongJump_g05_c02.avi
p461
aVLongJump/v_LongJump_g05_c03.avi
p462
aVLongJump/v_LongJump_g05_c04.avi
p463
aVLongJump/v_LongJump_g05_c05.avi
p464
aVLongJump/v_LongJump_g06_c01.avi
p465
aVLongJump/v_LongJump_g06_c02.avi
p466
aVLongJump/v_LongJump_g06_c03.avi
p467
aVLongJump/v_LongJump_g06_c04.avi
p468
aVLongJump/v_LongJump_g07_c01.avi
p469
aVLongJump/v_LongJump_g07_c02.avi
p470
aVLongJump/v_LongJump_g07_c03.avi
p471
aVLongJump/v_LongJump_g07_c05.avi
p472
aVPoleVault/v_PoleVault_g01_c01.avi
p473
aVPoleVault/v_PoleVault_g01_c02.avi
p474
aVPoleVault/v_PoleVault_g01_c03.avi
p475
aVPoleVault/v_PoleVault_g01_c04.avi
p476
aVPoleVault/v_PoleVault_g01_c05.avi
p477
aVPoleVault/v_PoleVault_g02_c01.avi
p478
aVPoleVault/v_PoleVault_g02_c02.avi
p479
aVPoleVault/v_PoleVault_g02_c03.avi
p480
aVPoleVault/v_PoleVault_g02_c04.avi
p481
aVPoleVault/v_PoleVault_g02_c05.avi
p482
aVPoleVault/v_PoleVault_g02_c06.avi
p483
aVPoleVault/v_PoleVault_g02_c07.avi
p484
aVPoleVault/v_PoleVault_g03_c01.avi
p485
aVPoleVault/v_PoleVault_g03_c02.avi
p486
aVPoleVault/v_PoleVault_g03_c03.avi
p487
aVPoleVault/v_PoleVault_g03_c04.avi
p488
aVPoleVault/v_PoleVault_g03_c05.avi
p489
aVPoleVault/v_PoleVault_g03_c06.avi
p490
aVPoleVault/v_PoleVault_g03_c07.avi
p491
aVPoleVault/v_PoleVault_g04_c01.avi
p492
aVPoleVault/v_PoleVault_g04_c02.avi
p493
aVPoleVault/v_PoleVault_g04_c03.avi
p494
aVPoleVault/v_PoleVault_g04_c04.avi
p495
aVPoleVault/v_PoleVault_g04_c05.avi
p496
aVPoleVault/v_PoleVault_g04_c06.avi
p497
aVPoleVault/v_PoleVault_g04_c07.avi
p498
aVPoleVault/v_PoleVault_g05_c01.avi
p499
aVPoleVault/v_PoleVault_g05_c02.avi
p500
aVPoleVault/v_PoleVault_g05_c03.avi
p501
aVPoleVault/v_PoleVault_g05_c04.avi
p502
aVPoleVault/v_PoleVault_g05_c05.avi
p503
aVPoleVault/v_PoleVault_g06_c01.avi
p504
aVPoleVault/v_PoleVault_g06_c02.avi
p505
aVPoleVault/v_PoleVault_g06_c03.avi
p506
aVPoleVault/v_PoleVault_g06_c04.avi
p507
aVPoleVault/v_PoleVault_g06_c05.avi
p508
aVPoleVault/v_PoleVault_g07_c01.avi
p509
aVPoleVault/v_PoleVault_g07_c02.avi
p510
aVPoleVault/v_PoleVault_g07_c03.avi
p511
aVPoleVault/v_PoleVault_g07_c04.avi
p512
aVRopeClimbing/v_RopeClimbing_g01_c01.avi
p513
aVRopeClimbing/v_RopeClimbing_g01_c02.avi
p514
aVRopeClimbing/v_RopeClimbing_g01_c03.avi
p515
aVRopeClimbing/v_RopeClimbing_g01_c04.avi
p516
aVRopeClimbing/v_RopeClimbing_g02_c01.avi
p517
aVRopeClimbing/v_RopeClimbing_g02_c02.avi
p518
aVRopeClimbing/v_RopeClimbing_g02_c03.avi
p519
aVRopeClimbing/v_RopeClimbing_g02_c04.avi
p520
aVRopeClimbing/v_RopeClimbing_g02_c05.avi
p521
aVRopeClimbing/v_RopeClimbing_g02_c06.avi
p522
aVRopeClimbing/v_RopeClimbing_g03_c01.avi
p523
aVRopeClimbing/v_RopeClimbing_g03_c02.avi
p524
aVRopeClimbing/v_RopeClimbing_g03_c03.avi
p525
aVRopeClimbing/v_RopeClimbing_g03_c04.avi
p526
aVRopeClimbing/v_RopeClimbing_g04_c01.avi
p527
aVRopeClimbing/v_RopeClimbing_g04_c02.avi
p528
aVRopeClimbing/v_RopeClimbing_g04_c03.avi
p529
aVRopeClimbing/v_RopeClimbing_g04_c04.avi
p530
aVRopeClimbing/v_RopeClimbing_g05_c01.avi
p531
aVRopeClimbing/v_RopeClimbing_g05_c02.avi
p532
aVRopeClimbing/v_RopeClimbing_g05_c03.avi
p533
aVRopeClimbing/v_RopeClimbing_g05_c04.avi
p534
aVRopeClimbing/v_RopeClimbing_g05_c05.avi
p535
aVRopeClimbing/v_RopeClimbing_g05_c06.avi
p536
aVRopeClimbing/v_RopeClimbing_g05_c07.avi
p537
aVRopeClimbing/v_RopeClimbing_g06_c01.avi
p538
aVRopeClimbing/v_RopeClimbing_g06_c02.avi
p539
aVRopeClimbing/v_RopeClimbing_g06_c03.avi
p540
aVRopeClimbing/v_RopeClimbing_g06_c04.avi
p541
aVRopeClimbing/v_RopeClimbing_g07_c01.avi
p542
aVRopeClimbing/v_RopeClimbing_g07_c02.avi
p543
aVRopeClimbing/v_RopeClimbing_g07_c03.avi
p544
aVRopeClimbing/v_RopeClimbing_g07_c04.avi
p545
aVRopeClimbing/v_RopeClimbing_g07_c05.avi
p546
aVSalsaSpin/v_SalsaSpin_g01_c01.avi
p547
aVSalsaSpin/v_SalsaSpin_g01_c02.avi
p548
aVSalsaSpin/v_SalsaSpin_g01_c03.avi
p549
aVSalsaSpin/v_SalsaSpin_g01_c04.avi
p550
aVSalsaSpin/v_SalsaSpin_g01_c05.avi
p551
aVSalsaSpin/v_SalsaSpin_g01_c06.avi
p552
aVSalsaSpin/v_SalsaSpin_g01_c07.avi
p553
aVSalsaSpin/v_SalsaSpin_g02_c01.avi
p554
aVSalsaSpin/v_SalsaSpin_g02_c02.avi
p555
aVSalsaSpin/v_SalsaSpin_g02_c03.avi
p556
aVSalsaSpin/v_SalsaSpin_g02_c04.avi
p557
aVSalsaSpin/v_SalsaSpin_g02_c05.avi
p558
aVSalsaSpin/v_SalsaSpin_g02_c06.avi
p559
aVSalsaSpin/v_SalsaSpin_g02_c07.avi
p560
aVSalsaSpin/v_SalsaSpin_g03_c01.avi
p561
aVSalsaSpin/v_SalsaSpin_g03_c02.avi
p562
aVSalsaSpin/v_SalsaSpin_g03_c03.avi
p563
aVSalsaSpin/v_SalsaSpin_g03_c04.avi
p564
aVSalsaSpin/v_SalsaSpin_g03_c05.avi
p565
aVSalsaSpin/v_SalsaSpin_g03_c06.avi
p566
aVSalsaSpin/v_SalsaSpin_g04_c01.avi
p567
aVSalsaSpin/v_SalsaSpin_g04_c02.avi
p568
aVSalsaSpin/v_SalsaSpin_g04_c03.avi
p569
aVSalsaSpin/v_SalsaSpin_g04_c04.avi
p570
aVSalsaSpin/v_SalsaSpin_g04_c05.avi
p571
aVSalsaSpin/v_SalsaSpin_g04_c06.avi
p572
aVSalsaSpin/v_SalsaSpin_g05_c01.avi
p573
aVSalsaSpin/v_SalsaSpin_g05_c02.avi
p574
aVSalsaSpin/v_SalsaSpin_g05_c03.avi
p575
aVSalsaSpin/v_SalsaSpin_g05_c04.avi
p576
aVSalsaSpin/v_SalsaSpin_g05_c05.avi
p577
aVSalsaSpin/v_SalsaSpin_g05_c06.avi
p578
aVSalsaSpin/v_SalsaSpin_g06_c01.avi
p579
aVSalsaSpin/v_SalsaSpin_g06_c02.avi
p580
aVSalsaSpin/v_SalsaSpin_g06_c03.avi
p581
aVSalsaSpin/v_SalsaSpin_g06_c04.avi
p582
aVSalsaSpin/v_SalsaSpin_g06_c05.avi
p583
aVSalsaSpin/v_SalsaSpin_g07_c01.avi
p584
aVSalsaSpin/v_SalsaSpin_g07_c02.avi
p585
aVSalsaSpin/v_SalsaSpin_g07_c03.avi
p586
aVSalsaSpin/v_SalsaSpin_g07_c04.avi
p587
aVSalsaSpin/v_SalsaSpin_g07_c05.avi
p588
aVSalsaSpin/v_SalsaSpin_g07_c06.avi
p589
aVSkateBoarding/v_SkateBoarding_g01_c01.avi
p590
aVSkateBoarding/v_SkateBoarding_g01_c02.avi
p591
aVSkateBoarding/v_SkateBoarding_g01_c03.avi
p592
aVSkateBoarding/v_SkateBoarding_g01_c04.avi
p593
aVSkateBoarding/v_SkateBoarding_g02_c01.avi
p594
aVSkateBoarding/v_SkateBoarding_g02_c02.avi
p595
aVSkateBoarding/v_SkateBoarding_g02_c03.avi
p596
aVSkateBoarding/v_SkateBoarding_g02_c04.avi
p597
aVSkateBoarding/v_SkateBoarding_g02_c05.avi
p598
aVSkateBoarding/v_SkateBoarding_g02_c06.avi
p599
aVSkateBoarding/v_SkateBoarding_g03_c01.avi
p600
aVSkateBoarding/v_SkateBoarding_g03_c02.avi
p601
aVSkateBoarding/v_SkateBoarding_g03_c03.avi
p602
aVSkateBoarding/v_SkateBoarding_g03_c04.avi
p603
aVSkateBoarding/v_SkateBoarding_g04_c01.avi
p604
aVSkateBoarding/v_SkateBoarding_g04_c02.avi
p605
aVSkateBoarding/v_SkateBoarding_g04_c03.avi
p606
aVSkateBoarding/v_SkateBoarding_g04_c04.avi
p607
aVSkateBoarding/v_SkateBoarding_g04_c05.avi
p608
aVSkateBoarding/v_SkateBoarding_g05_c01.avi
p609
aVSkateBoarding/v_SkateBoarding_g05_c02.avi
p610
aVSkateBoarding/v_SkateBoarding_g05_c03.avi
p611
aVSkateBoarding/v_SkateBoarding_g05_c04.avi
p612
aVSkateBoarding/v_SkateBoarding_g06_c01.avi
p613
aVSkateBoarding/v_SkateBoarding_g06_c02.avi
p614
aVSkateBoarding/v_SkateBoarding_g06_c03.avi
p615
aVSkateBoarding/v_SkateBoarding_g06_c04.avi
p616
aVSkateBoarding/v_SkateBoarding_g07_c01.avi
p617
aVSkateBoarding/v_SkateBoarding_g07_c02.avi
p618
aVSkateBoarding/v_SkateBoarding_g07_c03.avi
p619
aVSkateBoarding/v_SkateBoarding_g07_c04.avi
p620
aVSkateBoarding/v_SkateBoarding_g07_c05.avi
p621
aVSkiing/v_Skiing_g01_c01.avi
p622
aVSkiing/v_Skiing_g01_c02.avi
p623
aVSkiing/v_Skiing_g01_c03.avi
p624
aVSkiing/v_Skiing_g01_c04.avi
p625
aVSkiing/v_Skiing_g01_c05.avi
p626
aVSkiing/v_Skiing_g01_c06.avi
p627
aVSkiing/v_Skiing_g02_c01.avi
p628
aVSkiing/v_Skiing_g02_c02.avi
p629
aVSkiing/v_Skiing_g02_c03.avi
p630
aVSkiing/v_Skiing_g02_c04.avi
p631
aVSkiing/v_Skiing_g02_c05.avi
p632
aVSkiing/v_Skiing_g03_c01.avi
p633
aVSkiing/v_Skiing_g03_c02.avi
p634
aVSkiing/v_Skiing_g03_c03.avi
p635
aVSkiing/v_Skiing_g03_c04.avi
p636
aVSkiing/v_Skiing_g03_c05.avi
p637
aVSkiing/v_Skiing_g03_c06.avi
p638
aVSkiing/v_Skiing_g03_c07.avi
p639
aVSkiing/v_Skiing_g04_c01.avi
p640
aVSkiing/v_Skiing_g04_c02.avi
p641
aVSkiing/v_Skiing_g04_c03.avi
p642
aVSkiing/v_Skiing_g04_c04.avi
p643
aVSkiing/v_Skiing_g04_c05.avi
p644
aVSkiing/v_Skiing_g04_c06.avi
p645
aVSkiing/v_Skiing_g04_c07.avi
p646
aVSkiing/v_Skiing_g05_c01.avi
p647
aVSkiing/v_Skiing_g05_c02.avi
p648
aVSkiing/v_Skiing_g05_c03.avi
p649
aVSkiing/v_Skiing_g05_c04.avi
p650
aVSkiing/v_Skiing_g06_c01.avi
p651
aVSkiing/v_Skiing_g06_c02.avi
p652
aVSkiing/v_Skiing_g06_c03.avi
p653
aVSkiing/v_Skiing_g06_c04.avi
p654
aVSkiing/v_Skiing_g06_c05.avi
p655
aVSkiing/v_Skiing_g06_c06.avi
p656
aVSkiing/v_Skiing_g06_c07.avi
p657
aVSkiing/v_Skiing_g07_c01.avi
p658
aVSkiing/v_Skiing_g07_c02.avi
p659
aVSkiing/v_Skiing_g07_c03.avi
p660
aVSkiing/v_Skiing_g07_c04.avi
p661
aVSkijet/v_Skijet_g01_c01.avi
p662
aVSkijet/v_Skijet_g01_c02.avi
p663
aVSkijet/v_Skijet_g01_c03.avi
p664
aVSkijet/v_Skijet_g01_c04.avi
p665
aVSkijet/v_Skijet_g02_c01.avi
p666
aVSkijet/v_Skijet_g02_c02.avi
p667
aVSkijet/v_Skijet_g02_c03.avi
p668
aVSkijet/v_Skijet_g02_c04.avi
p669
aVSkijet/v_Skijet_g03_c01.avi
p670
aVSkijet/v_Skijet_g03_c02.avi
p671
aVSkijet/v_Skijet_g03_c03.avi
p672
aVSkijet/v_Skijet_g03_c04.avi
p673
aVSkijet/v_Skijet_g04_c01.avi
p674
aVSkijet/v_Skijet_g04_c02.avi
p675
aVSkijet/v_Skijet_g04_c03.avi
p676
aVSkijet/v_Skijet_g04_c04.avi
p677
aVSkijet/v_Skijet_g05_c01.avi
p678
aVSkijet/v_Skijet_g05_c02.avi
p679
aVSkijet/v_Skijet_g05_c03.avi
p680
aVSkijet/v_Skijet_g05_c04.avi
p681
aVSkijet/v_Skijet_g06_c01.avi
p682
aVSkijet/v_Skijet_g06_c02.avi
p683
aVSkijet/v_Skijet_g06_c03.avi
p684
aVSkijet/v_Skijet_g06_c04.avi
p685
aVSkijet/v_Skijet_g07_c01.avi
p686
aVSkijet/v_Skijet_g07_c02.avi
p687
aVSkijet/v_Skijet_g07_c03.avi
p688
aVSkijet/v_Skijet_g07_c04.avi
p689
aVSoccerJuggling/v_SoccerJuggling_g01_c01.avi
p690
aVSoccerJuggling/v_SoccerJuggling_g01_c02.avi
p691
aVSoccerJuggling/v_SoccerJuggling_g01_c03.avi
p692
aVSoccerJuggling/v_SoccerJuggling_g01_c04.avi
p693
aVSoccerJuggling/v_SoccerJuggling_g01_c05.avi
p694
aVSoccerJuggling/v_SoccerJuggling_g02_c01.avi
p695
aVSoccerJuggling/v_SoccerJuggling_g02_c02.avi
p696
aVSoccerJuggling/v_SoccerJuggling_g02_c03.avi
p697
aVSoccerJuggling/v_SoccerJuggling_g02_c04.avi
p698
aVSoccerJuggling/v_SoccerJuggling_g02_c05.avi
p699
aVSoccerJuggling/v_SoccerJuggling_g02_c06.avi
p700
aVSoccerJuggling/v_SoccerJuggling_g03_c01.avi
p701
aVSoccerJuggling/v_SoccerJuggling_g03_c02.avi
p702
aVSoccerJuggling/v_SoccerJuggling_g03_c03.avi
p703
aVSoccerJuggling/v_SoccerJuggling_g03_c04.avi
p704
aVSoccerJuggling/v_SoccerJuggling_g04_c01.avi
p705
aVSoccerJuggling/v_SoccerJuggling_g04_c02.avi
p706
aVSoccerJuggling/v_SoccerJuggling_g04_c03.avi
p707
aVSoccerJuggling/v_SoccerJuggling_g04_c04.avi
p708
aVSoccerJuggling/v_SoccerJuggling_g04_c05.avi
p709
aVSoccerJuggling/v_SoccerJuggling_g04_c06.avi
p710
aVSoccerJuggling/v_SoccerJuggling_g05_c01.avi
p711
aVSoccerJuggling/v_SoccerJuggling_g05_c02.avi
p712
aVSoccerJuggling/v_SoccerJuggling_g05_c03.avi
p713
aVSoccerJuggling/v_SoccerJuggling_g05_c04.avi
p714
aVSoccerJuggling/v_SoccerJuggling_g05_c05.avi
p715
aVSoccerJuggling/v_SoccerJuggling_g05_c06.avi
p716
aVSoccerJuggling/v_SoccerJuggling_g06_c01.avi
p717
aVSoccerJuggling/v_SoccerJuggling_g06_c02.avi
p718
aVSoccerJuggling/v_SoccerJuggling_g06_c03.avi
p719
aVSoccerJuggling/v_SoccerJuggling_g06_c04.avi
p720
aVSoccerJuggling/v_SoccerJuggling_g06_c05.avi
p721
aVSoccerJuggling/v_SoccerJuggling_g07_c01.avi
p722
aVSoccerJuggling/v_SoccerJuggling_g07_c02.avi
p723
aVSoccerJuggling/v_SoccerJuggling_g07_c03.avi
p724
aVSoccerJuggling/v_SoccerJuggling_g07_c04.avi
p725
aVSoccerJuggling/v_SoccerJuggling_g07_c05.avi
p726
aVSoccerJuggling/v_SoccerJuggling_g07_c06.avi
p727
aVSoccerJuggling/v_SoccerJuggling_g07_c07.avi
p728
aVSurfing/v_Surfing_g01_c01.avi
p729
aVSurfing/v_Surfing_g01_c02.avi
p730
aVSurfing/v_Surfing_g01_c03.avi
p731
aVSurfing/v_Surfing_g01_c04.avi
p732
aVSurfing/v_Surfing_g01_c05.avi
p733
aVSurfing/v_Surfing_g01_c06.avi
p734
aVSurfing/v_Surfing_g01_c07.avi
p735
aVSurfing/v_Surfing_g02_c01.avi
p736
aVSurfing/v_Surfing_g02_c02.avi
p737
aVSurfing/v_Surfing_g02_c03.avi
p738
aVSurfing/v_Surfing_g02_c04.avi
p739
aVSurfing/v_Surfing_g02_c05.avi
p740
aVSurfing/v_Surfing_g02_c06.avi
p741
aVSurfing/v_Surfing_g03_c01.avi
p742
aVSurfing/v_Surfing_g03_c02.avi
p743
aVSurfing/v_Surfing_g03_c03.avi
p744
aVSurfing/v_Surfing_g03_c04.avi
p745
aVSurfing/v_Surfing_g04_c01.avi
p746
aVSurfing/v_Surfing_g04_c02.avi
p747
aVSurfing/v_Surfing_g04_c03.avi
p748
aVSurfing/v_Surfing_g04_c04.avi
p749
aVSurfing/v_Surfing_g05_c01.avi
p750
aVSurfing/v_Surfing_g05_c02.avi
p751
aVSurfing/v_Surfing_g05_c03.avi
p752
aVSurfing/v_Surfing_g05_c04.avi
p753
aVSurfing/v_Surfing_g06_c01.avi
p754
aVSurfing/v_Surfing_g06_c02.avi
p755
aVSurfing/v_Surfing_g06_c03.avi
p756
aVSurfing/v_Surfing_g06_c04.avi
p757
aVSurfing/v_Surfing_g07_c01.avi
p758
aVSurfing/v_Surfing_g07_c02.avi
p759
aVSurfing/v_Surfing_g07_c03.avi
p760
aVSurfing/v_Surfing_g07_c04.avi
p761
aVTennisSwing/v_TennisSwing_g01_c01.avi
p762
aVTennisSwing/v_TennisSwing_g01_c02.avi
p763
aVTennisSwing/v_TennisSwing_g01_c03.avi
p764
aVTennisSwing/v_TennisSwing_g01_c04.avi
p765
aVTennisSwing/v_TennisSwing_g01_c05.avi
p766
aVTennisSwing/v_TennisSwing_g01_c06.avi
p767
aVTennisSwing/v_TennisSwing_g01_c07.avi
p768
aVTennisSwing/v_TennisSwing_g02_c01.avi
p769
aVTennisSwing/v_TennisSwing_g02_c02.avi
p770
aVTennisSwing/v_TennisSwing_g02_c03.avi
p771
aVTennisSwing/v_TennisSwing_g02_c04.avi
p772
aVTennisSwing/v_TennisSwing_g02_c05.avi
p773
aVTennisSwing/v_TennisSwing_g02_c06.avi
p774
aVTennisSwing/v_TennisSwing_g02_c07.avi
p775
aVTennisSwing/v_TennisSwing_g03_c01.avi
p776
aVTennisSwing/v_TennisSwing_g03_c02.avi
p777
aVTennisSwing/v_TennisSwing_g03_c03.avi
p778
aVTennisSwing/v_TennisSwing_g03_c04.avi
p779
aVTennisSwing/v_TennisSwing_g03_c05.avi
p780
aVTennisSwing/v_TennisSwing_g03_c06.avi
p781
aVTennisSwing/v_TennisSwing_g03_c07.avi
p782
aVTennisSwing/v_TennisSwing_g04_c01.avi
p783
aVTennisSwing/v_TennisSwing_g04_c02.avi
p784
aVTennisSwing/v_TennisSwing_g04_c03.avi
p785
aVTennisSwing/v_TennisSwing_g04_c04.avi
p786
aVTennisSwing/v_TennisSwing_g04_c05.avi
p787
aVTennisSwing/v_TennisSwing_g04_c06.avi
p788
aVTennisSwing/v_TennisSwing_g04_c07.avi
p789
aVTennisSwing/v_TennisSwing_g05_c01.avi
p790
aVTennisSwing/v_TennisSwing_g05_c02.avi
p791
aVTennisSwing/v_TennisSwing_g05_c03.avi
p792
aVTennisSwing/v_TennisSwing_g05_c04.avi
p793
aVTennisSwing/v_TennisSwing_g05_c05.avi
p794
aVTennisSwing/v_TennisSwing_g05_c06.avi
p795
aVTennisSwing/v_TennisSwing_g05_c07.avi
p796
aVTennisSwing/v_TennisSwing_g06_c01.avi
p797
aVTennisSwing/v_TennisSwing_g06_c02.avi
p798
aVTennisSwing/v_TennisSwing_g06_c03.avi
p799
aVTennisSwing/v_TennisSwing_g06_c04.avi
p800
aVTennisSwing/v_TennisSwing_g06_c05.avi
p801
aVTennisSwing/v_TennisSwing_g06_c06.avi
p802
aVTennisSwing/v_TennisSwing_g06_c07.avi
p803
aVTennisSwing/v_TennisSwing_g07_c01.avi
p804
aVTennisSwing/v_TennisSwing_g07_c02.avi
p805
aVTennisSwing/v_TennisSwing_g07_c03.avi
p806
aVTennisSwing/v_TennisSwing_g07_c04.avi
p807
aVTennisSwing/v_TennisSwing_g07_c05.avi
p808
aVTennisSwing/v_TennisSwing_g07_c06.avi
p809
aVTennisSwing/v_TennisSwing_g07_c07.avi
p810
aVTrampolineJumping/v_TrampolineJumping_g01_c01.avi
p811
aVTrampolineJumping/v_TrampolineJumping_g01_c02.avi
p812
aVTrampolineJumping/v_TrampolineJumping_g01_c03.avi
p813
aVTrampolineJumping/v_TrampolineJumping_g01_c04.avi
p814
aVTrampolineJumping/v_TrampolineJumping_g02_c01.avi
p815
aVTrampolineJumping/v_TrampolineJumping_g02_c02.avi
p816
aVTrampolineJumping/v_TrampolineJumping_g02_c03.avi
p817
aVTrampolineJumping/v_TrampolineJumping_g02_c04.avi
p818
aVTrampolineJumping/v_TrampolineJumping_g02_c05.avi
p819
aVTrampolineJumping/v_TrampolineJumping_g02_c06.avi
p820
aVTrampolineJumping/v_TrampolineJumping_g03_c01.avi
p821
aVTrampolineJumping/v_TrampolineJumping_g03_c02.avi
p822
aVTrampolineJumping/v_TrampolineJumping_g03_c03.avi
p823
aVTrampolineJumping/v_TrampolineJumping_g03_c04.avi
p824
aVTrampolineJumping/v_TrampolineJumping_g04_c01.avi
p825
aVTrampolineJumping/v_TrampolineJumping_g04_c02.avi
p826
aVTrampolineJumping/v_TrampolineJumping_g04_c03.avi
p827
aVTrampolineJumping/v_TrampolineJumping_g04_c04.avi
p828
aVTrampolineJumping/v_TrampolineJumping_g04_c05.avi
p829
aVTrampolineJumping/v_TrampolineJumping_g05_c01.avi
p830
aVTrampolineJumping/v_TrampolineJumping_g05_c02.avi
p831
aVTrampolineJumping/v_TrampolineJumping_g05_c03.avi
p832
aVTrampolineJumping/v_TrampolineJumping_g05_c04.avi
p833
aVTrampolineJumping/v_TrampolineJumping_g06_c01.avi
p834
aVTrampolineJumping/v_TrampolineJumping_g06_c02.avi
p835
aVTrampolineJumping/v_TrampolineJumping_g06_c04.avi
p836
aVTrampolineJumping/v_TrampolineJumping_g07_c01.avi
p837
aVTrampolineJumping/v_TrampolineJumping_g07_c02.avi
p838
aVTrampolineJumping/v_TrampolineJumping_g07_c03.avi
p839
aVTrampolineJumping/v_TrampolineJumping_g07_c04.avi
p840
aVTrampolineJumping/v_TrampolineJumping_g07_c05.avi
p841
aVVolleyballSpiking/v_VolleyballSpiking_g01_c01.avi
p842
aVVolleyballSpiking/v_VolleyballSpiking_g01_c02.avi
p843
aVVolleyballSpiking/v_VolleyballSpiking_g01_c03.avi
p844
aVVolleyballSpiking/v_VolleyballSpiking_g01_c04.avi
p845
aVVolleyballSpiking/v_VolleyballSpiking_g02_c01.avi
p846
aVVolleyballSpiking/v_VolleyballSpiking_g02_c04.avi
p847
aVVolleyballSpiking/v_VolleyballSpiking_g03_c01.avi
p848
aVVolleyballSpiking/v_VolleyballSpiking_g03_c02.avi
p849
aVVolleyballSpiking/v_VolleyballSpiking_g03_c03.avi
p850
aVVolleyballSpiking/v_VolleyballSpiking_g03_c04.avi
p851
aVVolleyballSpiking/v_VolleyballSpiking_g04_c01.avi
p852
aVVolleyballSpiking/v_VolleyballSpiking_g04_c02.avi
p853
aVVolleyballSpiking/v_VolleyballSpiking_g04_c03.avi
p854
aVVolleyballSpiking/v_VolleyballSpiking_g04_c04.avi
p855
aVVolleyballSpiking/v_VolleyballSpiking_g04_c05.avi
p856
aVVolleyballSpiking/v_VolleyballSpiking_g04_c06.avi
p857
aVVolleyballSpiking/v_VolleyballSpiking_g04_c07.avi
p858
aVVolleyballSpiking/v_VolleyballSpiking_g05_c01.avi
p859
aVVolleyballSpiking/v_VolleyballSpiking_g05_c02.avi
p860
aVVolleyballSpiking/v_VolleyballSpiking_g05_c03.avi
p861
aVVolleyballSpiking/v_VolleyballSpiking_g05_c04.avi
p862
aVVolleyballSpiking/v_VolleyballSpiking_g05_c05.avi
p863
aVVolleyballSpiking/v_VolleyballSpiking_g06_c01.avi
p864
aVVolleyballSpiking/v_VolleyballSpiking_g06_c02.avi
p865
aVVolleyballSpiking/v_VolleyballSpiking_g06_c03.avi
p866
aVVolleyballSpiking/v_VolleyballSpiking_g06_c04.avi
p867
aVVolleyballSpiking/v_VolleyballSpiking_g07_c01.avi
p868
aVVolleyballSpiking/v_VolleyballSpiking_g07_c02.avi
p869
aVVolleyballSpiking/v_VolleyballSpiking_g07_c03.avi
p870
aVVolleyballSpiking/v_VolleyballSpiking_g07_c04.avi
p871
aVVolleyballSpiking/v_VolleyballSpiking_g07_c05.avi
p872
aVVolleyballSpiking/v_VolleyballSpiking_g07_c06.avi
p873
aVVolleyballSpiking/v_VolleyballSpiking_g07_c07.avi
p874
aVWalkingWithDog/v_WalkingWithDog_g01_c01.avi
p875
aVWalkingWithDog/v_WalkingWithDog_g01_c02.avi
p876
aVWalkingWithDog/v_WalkingWithDog_g01_c03.avi
p877
aVWalkingWithDog/v_WalkingWithDog_g01_c04.avi
p878
aVWalkingWithDog/v_WalkingWithDog_g02_c01.avi
p879
aVWalkingWithDog/v_WalkingWithDog_g02_c02.avi
p880
aVWalkingWithDog/v_WalkingWithDog_g02_c03.avi
p881
aVWalkingWithDog/v_WalkingWithDog_g02_c04.avi
p882
aVWalkingWithDog/v_WalkingWithDog_g02_c05.avi
p883
aVWalkingWithDog/v_WalkingWithDog_g02_c06.avi
p884
aVWalkingWithDog/v_WalkingWithDog_g03_c01.avi
p885
aVWalkingWithDog/v_WalkingWithDog_g03_c02.avi
p886
aVWalkingWithDog/v_WalkingWithDog_g03_c03.avi
p887
aVWalkingWithDog/v_WalkingWithDog_g03_c04.avi
p888
aVWalkingWithDog/v_WalkingWithDog_g03_c05.avi
p889
aVWalkingWithDog/v_WalkingWithDog_g04_c01.avi
p890
aVWalkingWithDog/v_WalkingWithDog_g04_c02.avi
p891
aVWalkingWithDog/v_WalkingWithDog_g04_c03.avi
p892
aVWalkingWithDog/v_WalkingWithDog_g04_c04.avi
p893
aVWalkingWithDog/v_WalkingWithDog_g04_c05.avi
p894
aVWalkingWithDog/v_WalkingWithDog_g05_c01.avi
p895
aVWalkingWithDog/v_WalkingWithDog_g05_c02.avi
p896
aVWalkingWithDog/v_WalkingWithDog_g05_c03.avi
p897
aVWalkingWithDog/v_WalkingWithDog_g05_c04.avi
p898
aVWalkingWithDog/v_WalkingWithDog_g05_c05.avi
p899
aVWalkingWithDog/v_WalkingWithDog_g06_c01.avi
p900
aVWalkingWithDog/v_WalkingWithDog_g06_c02.avi
p901
aVWalkingWithDog/v_WalkingWithDog_g06_c03.avi
p902
aVWalkingWithDog/v_WalkingWithDog_g06_c04.avi
p903
aVWalkingWithDog/v_WalkingWithDog_g06_c05.avi
p904
aVWalkingWithDog/v_WalkingWithDog_g07_c01.avi
p905
aVWalkingWithDog/v_WalkingWithDog_g07_c02.avi
p906
aVWalkingWithDog/v_WalkingWithDog_g07_c03.avi
p907
aVWalkingWithDog/v_WalkingWithDog_g07_c04.avi
p908
aVWalkingWithDog/v_WalkingWithDog_g07_c05.avi
p909
aVWalkingWithDog/v_WalkingWithDog_g07_c06.avi
p910
a.