(lp0
S'Basketball/v_Basketball_g01_c01.avi              \n'
p1
aS'Basketball/v_Basketball_g01_c02.avi              \n'
p2
aS'Basketball/v_Basketball_g01_c03.avi              \n'
p3
aS'Basketball/v_Basketball_g01_c04.avi              \n'
p4
aS'Basketball/v_Basketball_g01_c05.avi              \n'
p5
aS'Basketball/v_Basketball_g01_c06.avi              \n'
p6
aS'Basketball/v_Basketball_g01_c07.avi              \n'
p7
aS'Basketball/v_Basketball_g02_c01.avi              \n'
p8
aS'Basketball/v_Basketball_g02_c02.avi              \n'
p9
aS'Basketball/v_Basketball_g02_c03.avi              \n'
p10
aS'Basketball/v_Basketball_g02_c04.avi              \n'
p11
aS'Basketball/v_Basketball_g02_c05.avi              \n'
p12
aS'Basketball/v_Basketball_g02_c06.avi              \n'
p13
aS'Basketball/v_Basketball_g03_c01.avi              \n'
p14
aS'Basketball/v_Basketball_g03_c02.avi              \n'
p15
aS'Basketball/v_Basketball_g03_c03.avi              \n'
p16
aS'Basketball/v_Basketball_g03_c04.avi              \n'
p17
aS'Basketball/v_Basketball_g03_c05.avi              \n'
p18
aS'Basketball/v_Basketball_g03_c06.avi              \n'
p19
aS'Basketball/v_Basketball_g04_c01.avi              \n'
p20
aS'Basketball/v_Basketball_g04_c02.avi              \n'
p21
aS'Basketball/v_Basketball_g04_c03.avi              \n'
p22
aS'Basketball/v_Basketball_g04_c04.avi              \n'
p23
aS'Basketball/v_Basketball_g05_c01.avi              \n'
p24
aS'Basketball/v_Basketball_g05_c02.avi              \n'
p25
aS'Basketball/v_Basketball_g05_c03.avi              \n'
p26
aS'Basketball/v_Basketball_g05_c04.avi              \n'
p27
aS'Basketball/v_Basketball_g06_c01.avi              \n'
p28
aS'Basketball/v_Basketball_g06_c02.avi              \n'
p29
aS'Basketball/v_Basketball_g06_c03.avi              \n'
p30
aS'Basketball/v_Basketball_g06_c04.avi              \n'
p31
aS'Basketball/v_Basketball_g07_c01.avi              \n'
p32
aS'Basketball/v_Basketball_g07_c02.avi              \n'
p33
aS'Basketball/v_Basketball_g07_c03.avi              \n'
p34
aS'Basketball/v_Basketball_g07_c04.avi              \n'
p35
aS'BasketballDunk/v_BasketballDunk_g01_c01.avi      \n'
p36
aS'BasketballDunk/v_BasketballDunk_g01_c02.avi      \n'
p37
aS'BasketballDunk/v_BasketballDunk_g01_c03.avi      \n'
p38
aS'BasketballDunk/v_BasketballDunk_g01_c04.avi      \n'
p39
aS'BasketballDunk/v_BasketballDunk_g01_c05.avi      \n'
p40
aS'BasketballDunk/v_BasketballDunk_g01_c06.avi      \n'
p41
aS'BasketballDunk/v_BasketballDunk_g01_c07.avi      \n'
p42
aS'BasketballDunk/v_BasketballDunk_g02_c01.avi      \n'
p43
aS'BasketballDunk/v_BasketballDunk_g02_c02.avi      \n'
p44
aS'BasketballDunk/v_BasketballDunk_g02_c03.avi      \n'
p45
aS'BasketballDunk/v_BasketballDunk_g02_c04.avi      \n'
p46
aS'BasketballDunk/v_BasketballDunk_g03_c01.avi      \n'
p47
aS'BasketballDunk/v_BasketballDunk_g03_c02.avi      \n'
p48
aS'BasketballDunk/v_BasketballDunk_g03_c03.avi      \n'
p49
aS'BasketballDunk/v_BasketballDunk_g03_c04.avi      \n'
p50
aS'BasketballDunk/v_BasketballDunk_g03_c05.avi      \n'
p51
aS'BasketballDunk/v_BasketballDunk_g03_c06.avi      \n'
p52
aS'BasketballDunk/v_BasketballDunk_g04_c01.avi      \n'
p53
aS'BasketballDunk/v_BasketballDunk_g04_c02.avi      \n'
p54
aS'BasketballDunk/v_BasketballDunk_g04_c03.avi      \n'
p55
aS'BasketballDunk/v_BasketballDunk_g04_c04.avi      \n'
p56
aS'BasketballDunk/v_BasketballDunk_g05_c01.avi      \n'
p57
aS'BasketballDunk/v_BasketballDunk_g05_c02.avi      \n'
p58
aS'BasketballDunk/v_BasketballDunk_g05_c03.avi      \n'
p59
aS'BasketballDunk/v_BasketballDunk_g05_c04.avi      \n'
p60
aS'BasketballDunk/v_BasketballDunk_g05_c05.avi      \n'
p61
aS'BasketballDunk/v_BasketballDunk_g05_c06.avi      \n'
p62
aS'BasketballDunk/v_BasketballDunk_g06_c01.avi      \n'
p63
aS'BasketballDunk/v_BasketballDunk_g06_c02.avi      \n'
p64
aS'BasketballDunk/v_BasketballDunk_g06_c03.avi      \n'
p65
aS'BasketballDunk/v_BasketballDunk_g06_c04.avi      \n'
p66
aS'BasketballDunk/v_BasketballDunk_g07_c01.avi      \n'
p67
aS'BasketballDunk/v_BasketballDunk_g07_c02.avi      \n'
p68
aS'BasketballDunk/v_BasketballDunk_g07_c03.avi      \n'
p69
aS'BasketballDunk/v_BasketballDunk_g07_c04.avi      \n'
p70
aS'BasketballDunk/v_BasketballDunk_g07_c05.avi      \n'
p71
aS'BasketballDunk/v_BasketballDunk_g07_c06.avi      \n'
p72
aS'Biking/v_Biking_g01_c01.avi                      \n'
p73
aS'Biking/v_Biking_g01_c02.avi                      \n'
p74
aS'Biking/v_Biking_g01_c03.avi                      \n'
p75
aS'Biking/v_Biking_g01_c04.avi                      \n'
p76
aS'Biking/v_Biking_g02_c01.avi                      \n'
p77
aS'Biking/v_Biking_g02_c02.avi                      \n'
p78
aS'Biking/v_Biking_g02_c03.avi                      \n'
p79
aS'Biking/v_Biking_g02_c04.avi                      \n'
p80
aS'Biking/v_Biking_g02_c05.avi                      \n'
p81
aS'Biking/v_Biking_g02_c06.avi                      \n'
p82
aS'Biking/v_Biking_g02_c07.avi                      \n'
p83
aS'Biking/v_Biking_g03_c01.avi                      \n'
p84
aS'Biking/v_Biking_g03_c02.avi                      \n'
p85
aS'Biking/v_Biking_g03_c03.avi                      \n'
p86
aS'Biking/v_Biking_g03_c04.avi                      \n'
p87
aS'Biking/v_Biking_g04_c01.avi                      \n'
p88
aS'Biking/v_Biking_g04_c02.avi                      \n'
p89
aS'Biking/v_Biking_g04_c03.avi                      \n'
p90
aS'Biking/v_Biking_g04_c04.avi                      \n'
p91
aS'Biking/v_Biking_g04_c05.avi                      \n'
p92
aS'Biking/v_Biking_g05_c01.avi                      \n'
p93
aS'Biking/v_Biking_g05_c02.avi                      \n'
p94
aS'Biking/v_Biking_g05_c03.avi                      \n'
p95
aS'Biking/v_Biking_g05_c04.avi                      \n'
p96
aS'Biking/v_Biking_g05_c05.avi                      \n'
p97
aS'Biking/v_Biking_g05_c06.avi                      \n'
p98
aS'Biking/v_Biking_g05_c07.avi                      \n'
p99
aS'Biking/v_Biking_g06_c01.avi                      \n'
p100
aS'Biking/v_Biking_g06_c02.avi                      \n'
p101
aS'Biking/v_Biking_g06_c03.avi                      \n'
p102
aS'Biking/v_Biking_g06_c04.avi                      \n'
p103
aS'Biking/v_Biking_g06_c05.avi                      \n'
p104
aS'Biking/v_Biking_g07_c01.avi                      \n'
p105
aS'Biking/v_Biking_g07_c02.avi                      \n'
p106
aS'Biking/v_Biking_g07_c03.avi                      \n'
p107
aS'Biking/v_Biking_g07_c04.avi                      \n'
p108
aS'Biking/v_Biking_g07_c05.avi                      \n'
p109
aS'Biking/v_Biking_g07_c06.avi                      \n'
p110
aS'CliffDiving/v_CliffDiving_g01_c01.avi            \n'
p111
aS'CliffDiving/v_CliffDiving_g01_c02.avi            \n'
p112
aS'CliffDiving/v_CliffDiving_g01_c03.avi            \n'
p113
aS'CliffDiving/v_CliffDiving_g01_c04.avi            \n'
p114
aS'CliffDiving/v_CliffDiving_g01_c05.avi            \n'
p115
aS'CliffDiving/v_CliffDiving_g01_c06.avi            \n'
p116
aS'CliffDiving/v_CliffDiving_g02_c01.avi            \n'
p117
aS'CliffDiving/v_CliffDiving_g02_c02.avi            \n'
p118
aS'CliffDiving/v_CliffDiving_g02_c03.avi            \n'
p119
aS'CliffDiving/v_CliffDiving_g02_c04.avi            \n'
p120
aS'CliffDiving/v_CliffDiving_g03_c01.avi            \n'
p121
aS'CliffDiving/v_CliffDiving_g03_c02.avi            \n'
p122
aS'CliffDiving/v_CliffDiving_g03_c03.avi            \n'
p123
aS'CliffDiving/v_CliffDiving_g03_c04.avi            \n'
p124
aS'CliffDiving/v_CliffDiving_g03_c05.avi            \n'
p125
aS'CliffDiving/v_CliffDiving_g04_c01.avi            \n'
p126
aS'CliffDiving/v_CliffDiving_g04_c02.avi            \n'
p127
aS'CliffDiving/v_CliffDiving_g04_c03.avi            \n'
p128
aS'CliffDiving/v_CliffDiving_g04_c04.avi            \n'
p129
aS'CliffDiving/v_CliffDiving_g05_c01.avi            \n'
p130
aS'CliffDiving/v_CliffDiving_g05_c02.avi            \n'
p131
aS'CliffDiving/v_CliffDiving_g05_c03.avi            \n'
p132
aS'CliffDiving/v_CliffDiving_g05_c04.avi            \n'
p133
aS'CliffDiving/v_CliffDiving_g05_c05.avi            \n'
p134
aS'CliffDiving/v_CliffDiving_g05_c06.avi            \n'
p135
aS'CliffDiving/v_CliffDiving_g05_c07.avi            \n'
p136
aS'CliffDiving/v_CliffDiving_g06_c01.avi            \n'
p137
aS'CliffDiving/v_CliffDiving_g06_c02.avi            \n'
p138
aS'CliffDiving/v_CliffDiving_g06_c03.avi            \n'
p139
aS'CliffDiving/v_CliffDiving_g06_c04.avi            \n'
p140
aS'CliffDiving/v_CliffDiving_g06_c05.avi            \n'
p141
aS'CliffDiving/v_CliffDiving_g06_c06.avi            \n'
p142
aS'CliffDiving/v_CliffDiving_g06_c07.avi            \n'
p143
aS'CliffDiving/v_CliffDiving_g07_c01.avi            \n'
p144
aS'CliffDiving/v_CliffDiving_g07_c02.avi            \n'
p145
aS'CliffDiving/v_CliffDiving_g07_c03.avi            \n'
p146
aS'CliffDiving/v_CliffDiving_g07_c04.avi            \n'
p147
aS'CliffDiving/v_CliffDiving_g07_c05.avi            \n'
p148
aS'CliffDiving/v_CliffDiving_g07_c06.avi            \n'
p149
aS'CricketBowling/v_CricketBowling_g01_c01.avi      \n'
p150
aS'CricketBowling/v_CricketBowling_g01_c02.avi      \n'
p151
aS'CricketBowling/v_CricketBowling_g01_c03.avi      \n'
p152
aS'CricketBowling/v_CricketBowling_g01_c04.avi      \n'
p153
aS'CricketBowling/v_CricketBowling_g01_c05.avi      \n'
p154
aS'CricketBowling/v_CricketBowling_g01_c06.avi      \n'
p155
aS'CricketBowling/v_CricketBowling_g01_c07.avi      \n'
p156
aS'CricketBowling/v_CricketBowling_g02_c01.avi      \n'
p157
aS'CricketBowling/v_CricketBowling_g02_c02.avi      \n'
p158
aS'CricketBowling/v_CricketBowling_g02_c03.avi      \n'
p159
aS'CricketBowling/v_CricketBowling_g02_c04.avi      \n'
p160
aS'CricketBowling/v_CricketBowling_g02_c05.avi      \n'
p161
aS'CricketBowling/v_CricketBowling_g02_c06.avi      \n'
p162
aS'CricketBowling/v_CricketBowling_g02_c07.avi      \n'
p163
aS'CricketBowling/v_CricketBowling_g03_c01.avi      \n'
p164
aS'CricketBowling/v_CricketBowling_g03_c02.avi      \n'
p165
aS'CricketBowling/v_CricketBowling_g03_c03.avi      \n'
p166
aS'CricketBowling/v_CricketBowling_g03_c04.avi      \n'
p167
aS'CricketBowling/v_CricketBowling_g04_c01.avi      \n'
p168
aS'CricketBowling/v_CricketBowling_g04_c02.avi      \n'
p169
aS'CricketBowling/v_CricketBowling_g04_c03.avi      \n'
p170
aS'CricketBowling/v_CricketBowling_g04_c04.avi      \n'
p171
aS'CricketBowling/v_CricketBowling_g04_c05.avi      \n'
p172
aS'CricketBowling/v_CricketBowling_g05_c01.avi      \n'
p173
aS'CricketBowling/v_CricketBowling_g05_c02.avi      \n'
p174
aS'CricketBowling/v_CricketBowling_g05_c03.avi      \n'
p175
aS'CricketBowling/v_CricketBowling_g05_c04.avi      \n'
p176
aS'CricketBowling/v_CricketBowling_g06_c01.avi      \n'
p177
aS'CricketBowling/v_CricketBowling_g06_c02.avi      \n'
p178
aS'CricketBowling/v_CricketBowling_g06_c03.avi      \n'
p179
aS'CricketBowling/v_CricketBowling_g06_c04.avi      \n'
p180
aS'CricketBowling/v_CricketBowling_g06_c05.avi      \n'
p181
aS'CricketBowling/v_CricketBowling_g07_c01.avi      \n'
p182
aS'CricketBowling/v_CricketBowling_g07_c02.avi      \n'
p183
aS'CricketBowling/v_CricketBowling_g07_c03.avi      \n'
p184
aS'CricketBowling/v_CricketBowling_g07_c04.avi      \n'
p185
aS'Diving/v_Diving_g01_c01.avi                      \n'
p186
aS'Diving/v_Diving_g01_c02.avi                      \n'
p187
aS'Diving/v_Diving_g01_c03.avi                      \n'
p188
aS'Diving/v_Diving_g01_c04.avi                      \n'
p189
aS'Diving/v_Diving_g01_c05.avi                      \n'
p190
aS'Diving/v_Diving_g01_c06.avi                      \n'
p191
aS'Diving/v_Diving_g01_c07.avi                      \n'
p192
aS'Diving/v_Diving_g02_c01.avi                      \n'
p193
aS'Diving/v_Diving_g02_c02.avi                      \n'
p194
aS'Diving/v_Diving_g02_c03.avi                      \n'
p195
aS'Diving/v_Diving_g02_c04.avi                      \n'
p196
aS'Diving/v_Diving_g02_c05.avi                      \n'
p197
aS'Diving/v_Diving_g02_c06.avi                      \n'
p198
aS'Diving/v_Diving_g02_c07.avi                      \n'
p199
aS'Diving/v_Diving_g03_c01.avi                      \n'
p200
aS'Diving/v_Diving_g03_c02.avi                      \n'
p201
aS'Diving/v_Diving_g03_c03.avi                      \n'
p202
aS'Diving/v_Diving_g03_c04.avi                      \n'
p203
aS'Diving/v_Diving_g03_c05.avi                      \n'
p204
aS'Diving/v_Diving_g03_c06.avi                      \n'
p205
aS'Diving/v_Diving_g03_c07.avi                      \n'
p206
aS'Diving/v_Diving_g04_c01.avi                      \n'
p207
aS'Diving/v_Diving_g04_c02.avi                      \n'
p208
aS'Diving/v_Diving_g04_c03.avi                      \n'
p209
aS'Diving/v_Diving_g04_c04.avi                      \n'
p210
aS'Diving/v_Diving_g04_c05.avi                      \n'
p211
aS'Diving/v_Diving_g04_c06.avi                      \n'
p212
aS'Diving/v_Diving_g04_c07.avi                      \n'
p213
aS'Diving/v_Diving_g05_c01.avi                      \n'
p214
aS'Diving/v_Diving_g05_c02.avi                      \n'
p215
aS'Diving/v_Diving_g05_c03.avi                      \n'
p216
aS'Diving/v_Diving_g05_c04.avi                      \n'
p217
aS'Diving/v_Diving_g05_c05.avi                      \n'
p218
aS'Diving/v_Diving_g05_c06.avi                      \n'
p219
aS'Diving/v_Diving_g06_c01.avi                      \n'
p220
aS'Diving/v_Diving_g06_c02.avi                      \n'
p221
aS'Diving/v_Diving_g06_c03.avi                      \n'
p222
aS'Diving/v_Diving_g06_c04.avi                      \n'
p223
aS'Diving/v_Diving_g06_c05.avi                      \n'
p224
aS'Diving/v_Diving_g06_c06.avi                      \n'
p225
aS'Diving/v_Diving_g06_c07.avi                      \n'
p226
aS'Diving/v_Diving_g07_c01.avi                      \n'
p227
aS'Diving/v_Diving_g07_c02.avi                      \n'
p228
aS'Diving/v_Diving_g07_c03.avi                      \n'
p229
aS'Diving/v_Diving_g07_c04.avi                      \n'
p230
aS'Fencing/v_Fencing_g01_c01.avi                    \n'
p231
aS'Fencing/v_Fencing_g01_c02.avi                    \n'
p232
aS'Fencing/v_Fencing_g01_c03.avi                    \n'
p233
aS'Fencing/v_Fencing_g01_c04.avi                    \n'
p234
aS'Fencing/v_Fencing_g01_c05.avi                    \n'
p235
aS'Fencing/v_Fencing_g01_c06.avi                    \n'
p236
aS'Fencing/v_Fencing_g02_c01.avi                    \n'
p237
aS'Fencing/v_Fencing_g02_c02.avi                    \n'
p238
aS'Fencing/v_Fencing_g02_c03.avi                    \n'
p239
aS'Fencing/v_Fencing_g02_c04.avi                    \n'
p240
aS'Fencing/v_Fencing_g02_c05.avi                    \n'
p241
aS'Fencing/v_Fencing_g03_c01.avi                    \n'
p242
aS'Fencing/v_Fencing_g03_c02.avi                    \n'
p243
aS'Fencing/v_Fencing_g03_c03.avi                    \n'
p244
aS'Fencing/v_Fencing_g03_c04.avi                    \n'
p245
aS'Fencing/v_Fencing_g03_c05.avi                    \n'
p246
aS'Fencing/v_Fencing_g04_c01.avi                    \n'
p247
aS'Fencing/v_Fencing_g04_c02.avi                    \n'
p248
aS'Fencing/v_Fencing_g04_c03.avi                    \n'
p249
aS'Fencing/v_Fencing_g04_c04.avi                    \n'
p250
aS'Fencing/v_Fencing_g04_c05.avi                    \n'
p251
aS'Fencing/v_Fencing_g05_c01.avi                    \n'
p252
aS'Fencing/v_Fencing_g05_c02.avi                    \n'
p253
aS'Fencing/v_Fencing_g05_c03.avi                    \n'
p254
aS'Fencing/v_Fencing_g05_c04.avi                    \n'
p255
aS'Fencing/v_Fencing_g05_c05.avi                    \n'
p256
aS'Fencing/v_Fencing_g06_c01.avi                    \n'
p257
aS'Fencing/v_Fencing_g06_c02.avi                    \n'
p258
aS'Fencing/v_Fencing_g06_c03.avi                    \n'
p259
aS'Fencing/v_Fencing_g06_c04.avi                    \n'
p260
aS'Fencing/v_Fencing_g07_c01.avi                    \n'
p261
aS'Fencing/v_Fencing_g07_c02.avi                    \n'
p262
aS'Fencing/v_Fencing_g07_c03.avi                    \n'
p263
aS'Fencing/v_Fencing_g07_c04.avi                    \n'
p264
aS'FloorGymnastics/v_FloorGymnastics_g01_c01.avi    \n'
p265
aS'FloorGymnastics/v_FloorGymnastics_g01_c02.avi    \n'
p266
aS'FloorGymnastics/v_FloorGymnastics_g01_c03.avi    \n'
p267
aS'FloorGymnastics/v_FloorGymnastics_g01_c04.avi    \n'
p268
aS'FloorGymnastics/v_FloorGymnastics_g01_c05.avi    \n'
p269
aS'FloorGymnastics/v_FloorGymnastics_g02_c01.avi    \n'
p270
aS'FloorGymnastics/v_FloorGymnastics_g02_c02.avi    \n'
p271
aS'FloorGymnastics/v_FloorGymnastics_g02_c03.avi    \n'
p272
aS'FloorGymnastics/v_FloorGymnastics_g02_c04.avi    \n'
p273
aS'FloorGymnastics/v_FloorGymnastics_g03_c01.avi    \n'
p274
aS'FloorGymnastics/v_FloorGymnastics_g03_c02.avi    \n'
p275
aS'FloorGymnastics/v_FloorGymnastics_g03_c03.avi    \n'
p276
aS'FloorGymnastics/v_FloorGymnastics_g03_c04.avi    \n'
p277
aS'FloorGymnastics/v_FloorGymnastics_g04_c01.avi    \n'
p278
aS'FloorGymnastics/v_FloorGymnastics_g04_c02.avi    \n'
p279
aS'FloorGymnastics/v_FloorGymnastics_g04_c03.avi    \n'
p280
aS'FloorGymnastics/v_FloorGymnastics_g04_c04.avi    \n'
p281
aS'FloorGymnastics/v_FloorGymnastics_g04_c05.avi    \n'
p282
aS'FloorGymnastics/v_FloorGymnastics_g05_c01.avi    \n'
p283
aS'FloorGymnastics/v_FloorGymnastics_g05_c02.avi    \n'
p284
aS'FloorGymnastics/v_FloorGymnastics_g05_c03.avi    \n'
p285
aS'FloorGymnastics/v_FloorGymnastics_g05_c04.avi    \n'
p286
aS'FloorGymnastics/v_FloorGymnastics_g06_c01.avi    \n'
p287
aS'FloorGymnastics/v_FloorGymnastics_g06_c02.avi    \n'
p288
aS'FloorGymnastics/v_FloorGymnastics_g06_c03.avi    \n'
p289
aS'FloorGymnastics/v_FloorGymnastics_g06_c04.avi    \n'
p290
aS'FloorGymnastics/v_FloorGymnastics_g06_c05.avi    \n'
p291
aS'FloorGymnastics/v_FloorGymnastics_g06_c06.avi    \n'
p292
aS'FloorGymnastics/v_FloorGymnastics_g06_c07.avi    \n'
p293
aS'FloorGymnastics/v_FloorGymnastics_g07_c01.avi    \n'
p294
aS'FloorGymnastics/v_FloorGymnastics_g07_c02.avi    \n'
p295
aS'FloorGymnastics/v_FloorGymnastics_g07_c03.avi    \n'
p296
aS'FloorGymnastics/v_FloorGymnastics_g07_c04.avi    \n'
p297
aS'FloorGymnastics/v_FloorGymnastics_g07_c05.avi    \n'
p298
aS'FloorGymnastics/v_FloorGymnastics_g07_c06.avi    \n'
p299
aS'FloorGymnastics/v_FloorGymnastics_g07_c07.avi    \n'
p300
aS'GolfSwing/v_GolfSwing_g01_c01.avi                \n'
p301
aS'GolfSwing/v_GolfSwing_g01_c02.avi                \n'
p302
aS'GolfSwing/v_GolfSwing_g01_c03.avi                \n'
p303
aS'GolfSwing/v_GolfSwing_g01_c04.avi                \n'
p304
aS'GolfSwing/v_GolfSwing_g01_c05.avi                \n'
p305
aS'GolfSwing/v_GolfSwing_g01_c06.avi                \n'
p306
aS'GolfSwing/v_GolfSwing_g02_c01.avi                \n'
p307
aS'GolfSwing/v_GolfSwing_g02_c02.avi                \n'
p308
aS'GolfSwing/v_GolfSwing_g02_c03.avi                \n'
p309
aS'GolfSwing/v_GolfSwing_g02_c04.avi                \n'
p310
aS'GolfSwing/v_GolfSwing_g03_c01.avi                \n'
p311
aS'GolfSwing/v_GolfSwing_g03_c02.avi                \n'
p312
aS'GolfSwing/v_GolfSwing_g03_c03.avi                \n'
p313
aS'GolfSwing/v_GolfSwing_g03_c04.avi                \n'
p314
aS'GolfSwing/v_GolfSwing_g03_c05.avi                \n'
p315
aS'GolfSwing/v_GolfSwing_g03_c06.avi                \n'
p316
aS'GolfSwing/v_GolfSwing_g03_c07.avi                \n'
p317
aS'GolfSwing/v_GolfSwing_g04_c01.avi                \n'
p318
aS'GolfSwing/v_GolfSwing_g04_c02.avi                \n'
p319
aS'GolfSwing/v_GolfSwing_g04_c03.avi                \n'
p320
aS'GolfSwing/v_GolfSwing_g04_c04.avi                \n'
p321
aS'GolfSwing/v_GolfSwing_g04_c05.avi                \n'
p322
aS'GolfSwing/v_GolfSwing_g04_c06.avi                \n'
p323
aS'GolfSwing/v_GolfSwing_g05_c01.avi                \n'
p324
aS'GolfSwing/v_GolfSwing_g05_c02.avi                \n'
p325
aS'GolfSwing/v_GolfSwing_g05_c03.avi                \n'
p326
aS'GolfSwing/v_GolfSwing_g05_c04.avi                \n'
p327
aS'GolfSwing/v_GolfSwing_g05_c05.avi                \n'
p328
aS'GolfSwing/v_GolfSwing_g05_c06.avi                \n'
p329
aS'GolfSwing/v_GolfSwing_g05_c07.avi                \n'
p330
aS'GolfSwing/v_GolfSwing_g06_c01.avi                \n'
p331
aS'GolfSwing/v_GolfSwing_g06_c02.avi                \n'
p332
aS'GolfSwing/v_GolfSwing_g06_c03.avi                \n'
p333
aS'GolfSwing/v_GolfSwing_g06_c04.avi                \n'
p334
aS'GolfSwing/v_GolfSwing_g07_c01.avi                \n'
p335
aS'GolfSwing/v_GolfSwing_g07_c02.avi                \n'
p336
aS'GolfSwing/v_GolfSwing_g07_c03.avi                \n'
p337
aS'GolfSwing/v_GolfSwing_g07_c04.avi                \n'
p338
aS'GolfSwing/v_GolfSwing_g07_c05.avi                \n'
p339
aS'HorseRiding/v_HorseRiding_g01_c01.avi            \n'
p340
aS'HorseRiding/v_HorseRiding_g01_c02.avi            \n'
p341
aS'HorseRiding/v_HorseRiding_g01_c03.avi            \n'
p342
aS'HorseRiding/v_HorseRiding_g01_c04.avi            \n'
p343
aS'HorseRiding/v_HorseRiding_g01_c05.avi            \n'
p344
aS'HorseRiding/v_HorseRiding_g01_c06.avi            \n'
p345
aS'HorseRiding/v_HorseRiding_g01_c07.avi            \n'
p346
aS'HorseRiding/v_HorseRiding_g02_c01.avi            \n'
p347
aS'HorseRiding/v_HorseRiding_g02_c02.avi            \n'
p348
aS'HorseRiding/v_HorseRiding_g02_c03.avi            \n'
p349
aS'HorseRiding/v_HorseRiding_g02_c04.avi            \n'
p350
aS'HorseRiding/v_HorseRiding_g02_c05.avi            \n'
p351
aS'HorseRiding/v_HorseRiding_g02_c06.avi            \n'
p352
aS'HorseRiding/v_HorseRiding_g02_c07.avi            \n'
p353
aS'HorseRiding/v_HorseRiding_g03_c01.avi            \n'
p354
aS'HorseRiding/v_HorseRiding_g03_c02.avi            \n'
p355
aS'HorseRiding/v_HorseRiding_g03_c03.avi            \n'
p356
aS'HorseRiding/v_HorseRiding_g03_c04.avi            \n'
p357
aS'HorseRiding/v_HorseRiding_g03_c05.avi            \n'
p358
aS'HorseRiding/v_HorseRiding_g03_c06.avi            \n'
p359
aS'HorseRiding/v_HorseRiding_g03_c07.avi            \n'
p360
aS'HorseRiding/v_HorseRiding_g04_c01.avi            \n'
p361
aS'HorseRiding/v_HorseRiding_g04_c02.avi            \n'
p362
aS'HorseRiding/v_HorseRiding_g04_c03.avi            \n'
p363
aS'HorseRiding/v_HorseRiding_g04_c04.avi            \n'
p364
aS'HorseRiding/v_HorseRiding_g04_c05.avi            \n'
p365
aS'HorseRiding/v_HorseRiding_g04_c06.avi            \n'
p366
aS'HorseRiding/v_HorseRiding_g04_c07.avi            \n'
p367
aS'HorseRiding/v_HorseRiding_g05_c01.avi            \n'
p368
aS'HorseRiding/v_HorseRiding_g05_c02.avi            \n'
p369
aS'HorseRiding/v_HorseRiding_g05_c03.avi            \n'
p370
aS'HorseRiding/v_HorseRiding_g05_c04.avi            \n'
p371
aS'HorseRiding/v_HorseRiding_g05_c05.avi            \n'
p372
aS'HorseRiding/v_HorseRiding_g05_c06.avi            \n'
p373
aS'HorseRiding/v_HorseRiding_g05_c07.avi            \n'
p374
aS'HorseRiding/v_HorseRiding_g06_c01.avi            \n'
p375
aS'HorseRiding/v_HorseRiding_g06_c02.avi            \n'
p376
aS'HorseRiding/v_HorseRiding_g06_c03.avi            \n'
p377
aS'HorseRiding/v_HorseRiding_g06_c04.avi            \n'
p378
aS'HorseRiding/v_HorseRiding_g06_c05.avi            \n'
p379
aS'HorseRiding/v_HorseRiding_g06_c06.avi            \n'
p380
aS'HorseRiding/v_HorseRiding_g06_c07.avi            \n'
p381
aS'HorseRiding/v_HorseRiding_g07_c01.avi            \n'
p382
aS'HorseRiding/v_HorseRiding_g07_c02.avi            \n'
p383
aS'HorseRiding/v_HorseRiding_g07_c03.avi            \n'
p384
aS'HorseRiding/v_HorseRiding_g07_c04.avi            \n'
p385
aS'HorseRiding/v_HorseRiding_g07_c05.avi            \n'
p386
aS'HorseRiding/v_HorseRiding_g07_c06.avi            \n'
p387
aS'HorseRiding/v_HorseRiding_g07_c07.avi            \n'
p388
aS'IceDancing/v_IceDancing_g01_c01.avi              \n'
p389
aS'IceDancing/v_IceDancing_g01_c02.avi              \n'
p390
aS'IceDancing/v_IceDancing_g01_c03.avi              \n'
p391
aS'IceDancing/v_IceDancing_g01_c04.avi              \n'
p392
aS'IceDancing/v_IceDancing_g01_c05.avi              \n'
p393
aS'IceDancing/v_IceDancing_g01_c06.avi              \n'
p394
aS'IceDancing/v_IceDancing_g01_c07.avi              \n'
p395
aS'IceDancing/v_IceDancing_g02_c01.avi              \n'
p396
aS'IceDancing/v_IceDancing_g02_c02.avi              \n'
p397
aS'IceDancing/v_IceDancing_g02_c03.avi              \n'
p398
aS'IceDancing/v_IceDancing_g02_c04.avi              \n'
p399
aS'IceDancing/v_IceDancing_g02_c05.avi              \n'
p400
aS'IceDancing/v_IceDancing_g02_c06.avi              \n'
p401
aS'IceDancing/v_IceDancing_g02_c07.avi              \n'
p402
aS'IceDancing/v_IceDancing_g03_c01.avi              \n'
p403
aS'IceDancing/v_IceDancing_g03_c02.avi              \n'
p404
aS'IceDancing/v_IceDancing_g03_c03.avi              \n'
p405
aS'IceDancing/v_IceDancing_g03_c04.avi              \n'
p406
aS'IceDancing/v_IceDancing_g03_c05.avi              \n'
p407
aS'IceDancing/v_IceDancing_g03_c06.avi              \n'
p408
aS'IceDancing/v_IceDancing_g04_c01.avi              \n'
p409
aS'IceDancing/v_IceDancing_g04_c02.avi              \n'
p410
aS'IceDancing/v_IceDancing_g04_c03.avi              \n'
p411
aS'IceDancing/v_IceDancing_g04_c04.avi              \n'
p412
aS'IceDancing/v_IceDancing_g04_c05.avi              \n'
p413
aS'IceDancing/v_IceDancing_g04_c06.avi              \n'
p414
aS'IceDancing/v_IceDancing_g04_c07.avi              \n'
p415
aS'IceDancing/v_IceDancing_g05_c01.avi              \n'
p416
aS'IceDancing/v_IceDancing_g05_c02.avi              \n'
p417
aS'IceDancing/v_IceDancing_g05_c03.avi              \n'
p418
aS'IceDancing/v_IceDancing_g05_c04.avi              \n'
p419
aS'IceDancing/v_IceDancing_g05_c05.avi              \n'
p420
aS'IceDancing/v_IceDancing_g05_c06.avi              \n'
p421
aS'IceDancing/v_IceDancing_g06_c01.avi              \n'
p422
aS'IceDancing/v_IceDancing_g06_c02.avi              \n'
p423
aS'IceDancing/v_IceDancing_g06_c03.avi              \n'
p424
aS'IceDancing/v_IceDancing_g06_c04.avi              \n'
p425
aS'IceDancing/v_IceDancing_g06_c05.avi              \n'
p426
aS'IceDancing/v_IceDancing_g06_c06.avi              \n'
p427
aS'IceDancing/v_IceDancing_g07_c01.avi              \n'
p428
aS'IceDancing/v_IceDancing_g07_c02.avi              \n'
p429
aS'IceDancing/v_IceDancing_g07_c03.avi              \n'
p430
aS'IceDancing/v_IceDancing_g07_c04.avi              \n'
p431
aS'IceDancing/v_IceDancing_g07_c05.avi              \n'
p432
aS'IceDancing/v_IceDancing_g07_c06.avi              \n'
p433
aS'IceDancing/v_IceDancing_g07_c07.avi              \n'
p434
aS'LongJump/v_LongJump_g01_c01.avi                  \n'
p435
aS'LongJump/v_LongJump_g01_c02.avi                  \n'
p436
aS'LongJump/v_LongJump_g01_c03.avi                  \n'
p437
aS'LongJump/v_LongJump_g01_c04.avi                  \n'
p438
aS'LongJump/v_LongJump_g01_c05.avi                  \n'
p439
aS'LongJump/v_LongJump_g01_c06.avi                  \n'
p440
aS'LongJump/v_LongJump_g01_c07.avi                  \n'
p441
aS'LongJump/v_LongJump_g02_c01.avi                  \n'
p442
aS'LongJump/v_LongJump_g02_c02.avi                  \n'
p443
aS'LongJump/v_LongJump_g02_c03.avi                  \n'
p444
aS'LongJump/v_LongJump_g02_c04.avi                  \n'
p445
aS'LongJump/v_LongJump_g02_c05.avi                  \n'
p446
aS'LongJump/v_LongJump_g03_c01.avi                  \n'
p447
aS'LongJump/v_LongJump_g03_c02.avi                  \n'
p448
aS'LongJump/v_LongJump_g03_c03.avi                  \n'
p449
aS'LongJump/v_LongJump_g03_c04.avi                  \n'
p450
aS'LongJump/v_LongJump_g03_c05.avi                  \n'
p451
aS'LongJump/v_LongJump_g03_c06.avi                  \n'
p452
aS'LongJump/v_LongJump_g04_c01.avi                  \n'
p453
aS'LongJump/v_LongJump_g04_c02.avi                  \n'
p454
aS'LongJump/v_LongJump_g04_c03.avi                  \n'
p455
aS'LongJump/v_LongJump_g04_c04.avi                  \n'
p456
aS'LongJump/v_LongJump_g04_c05.avi                  \n'
p457
aS'LongJump/v_LongJump_g04_c06.avi                  \n'
p458
aS'LongJump/v_LongJump_g04_c07.avi                  \n'
p459
aS'LongJump/v_LongJump_g05_c01.avi                  \n'
p460
aS'LongJump/v_LongJump_g05_c02.avi                  \n'
p461
aS'LongJump/v_LongJump_g05_c03.avi                  \n'
p462
aS'LongJump/v_LongJump_g05_c04.avi                  \n'
p463
aS'LongJump/v_LongJump_g05_c05.avi                  \n'
p464
aS'LongJump/v_LongJump_g06_c01.avi                  \n'
p465
aS'LongJump/v_LongJump_g06_c02.avi                  \n'
p466
aS'LongJump/v_LongJump_g06_c03.avi                  \n'
p467
aS'LongJump/v_LongJump_g06_c04.avi                  \n'
p468
aS'LongJump/v_LongJump_g07_c01.avi                  \n'
p469
aS'LongJump/v_LongJump_g07_c02.avi                  \n'
p470
aS'LongJump/v_LongJump_g07_c03.avi                  \n'
p471
aS'LongJump/v_LongJump_g07_c04.avi                  \n'
p472
aS'LongJump/v_LongJump_g07_c05.avi                  \n'
p473
aS'PoleVault/v_PoleVault_g01_c01.avi                \n'
p474
aS'PoleVault/v_PoleVault_g01_c02.avi                \n'
p475
aS'PoleVault/v_PoleVault_g01_c03.avi                \n'
p476
aS'PoleVault/v_PoleVault_g01_c04.avi                \n'
p477
aS'PoleVault/v_PoleVault_g01_c05.avi                \n'
p478
aS'PoleVault/v_PoleVault_g02_c01.avi                \n'
p479
aS'PoleVault/v_PoleVault_g02_c02.avi                \n'
p480
aS'PoleVault/v_PoleVault_g02_c03.avi                \n'
p481
aS'PoleVault/v_PoleVault_g02_c04.avi                \n'
p482
aS'PoleVault/v_PoleVault_g02_c05.avi                \n'
p483
aS'PoleVault/v_PoleVault_g02_c06.avi                \n'
p484
aS'PoleVault/v_PoleVault_g02_c07.avi                \n'
p485
aS'PoleVault/v_PoleVault_g03_c01.avi                \n'
p486
aS'PoleVault/v_PoleVault_g03_c02.avi                \n'
p487
aS'PoleVault/v_PoleVault_g03_c03.avi                \n'
p488
aS'PoleVault/v_PoleVault_g03_c04.avi                \n'
p489
aS'PoleVault/v_PoleVault_g03_c05.avi                \n'
p490
aS'PoleVault/v_PoleVault_g03_c06.avi                \n'
p491
aS'PoleVault/v_PoleVault_g03_c07.avi                \n'
p492
aS'PoleVault/v_PoleVault_g04_c01.avi                \n'
p493
aS'PoleVault/v_PoleVault_g04_c02.avi                \n'
p494
aS'PoleVault/v_PoleVault_g04_c03.avi                \n'
p495
aS'PoleVault/v_PoleVault_g04_c04.avi                \n'
p496
aS'PoleVault/v_PoleVault_g04_c05.avi                \n'
p497
aS'PoleVault/v_PoleVault_g04_c06.avi                \n'
p498
aS'PoleVault/v_PoleVault_g04_c07.avi                \n'
p499
aS'PoleVault/v_PoleVault_g05_c01.avi                \n'
p500
aS'PoleVault/v_PoleVault_g05_c02.avi                \n'
p501
aS'PoleVault/v_PoleVault_g05_c03.avi                \n'
p502
aS'PoleVault/v_PoleVault_g05_c04.avi                \n'
p503
aS'PoleVault/v_PoleVault_g05_c05.avi                \n'
p504
aS'PoleVault/v_PoleVault_g06_c01.avi                \n'
p505
aS'PoleVault/v_PoleVault_g06_c02.avi                \n'
p506
aS'PoleVault/v_PoleVault_g06_c03.avi                \n'
p507
aS'PoleVault/v_PoleVault_g06_c04.avi                \n'
p508
aS'PoleVault/v_PoleVault_g06_c05.avi                \n'
p509
aS'PoleVault/v_PoleVault_g07_c01.avi                \n'
p510
aS'PoleVault/v_PoleVault_g07_c02.avi                \n'
p511
aS'PoleVault/v_PoleVault_g07_c03.avi                \n'
p512
aS'PoleVault/v_PoleVault_g07_c04.avi                \n'
p513
aS'RopeClimbing/v_RopeClimbing_g01_c01.avi          \n'
p514
aS'RopeClimbing/v_RopeClimbing_g01_c02.avi          \n'
p515
aS'RopeClimbing/v_RopeClimbing_g01_c03.avi          \n'
p516
aS'RopeClimbing/v_RopeClimbing_g01_c04.avi          \n'
p517
aS'RopeClimbing/v_RopeClimbing_g02_c01.avi          \n'
p518
aS'RopeClimbing/v_RopeClimbing_g02_c02.avi          \n'
p519
aS'RopeClimbing/v_RopeClimbing_g02_c03.avi          \n'
p520
aS'RopeClimbing/v_RopeClimbing_g02_c04.avi          \n'
p521
aS'RopeClimbing/v_RopeClimbing_g02_c05.avi          \n'
p522
aS'RopeClimbing/v_RopeClimbing_g02_c06.avi          \n'
p523
aS'RopeClimbing/v_RopeClimbing_g03_c01.avi          \n'
p524
aS'RopeClimbing/v_RopeClimbing_g03_c02.avi          \n'
p525
aS'RopeClimbing/v_RopeClimbing_g03_c03.avi          \n'
p526
aS'RopeClimbing/v_RopeClimbing_g03_c04.avi          \n'
p527
aS'RopeClimbing/v_RopeClimbing_g04_c01.avi          \n'
p528
aS'RopeClimbing/v_RopeClimbing_g04_c02.avi          \n'
p529
aS'RopeClimbing/v_RopeClimbing_g04_c03.avi          \n'
p530
aS'RopeClimbing/v_RopeClimbing_g04_c04.avi          \n'
p531
aS'RopeClimbing/v_RopeClimbing_g05_c01.avi          \n'
p532
aS'RopeClimbing/v_RopeClimbing_g05_c02.avi          \n'
p533
aS'RopeClimbing/v_RopeClimbing_g05_c03.avi          \n'
p534
aS'RopeClimbing/v_RopeClimbing_g05_c04.avi          \n'
p535
aS'RopeClimbing/v_RopeClimbing_g05_c05.avi          \n'
p536
aS'RopeClimbing/v_RopeClimbing_g05_c06.avi          \n'
p537
aS'RopeClimbing/v_RopeClimbing_g05_c07.avi          \n'
p538
aS'RopeClimbing/v_RopeClimbing_g06_c01.avi          \n'
p539
aS'RopeClimbing/v_RopeClimbing_g06_c02.avi          \n'
p540
aS'RopeClimbing/v_RopeClimbing_g06_c03.avi          \n'
p541
aS'RopeClimbing/v_RopeClimbing_g06_c04.avi          \n'
p542
aS'RopeClimbing/v_RopeClimbing_g07_c01.avi          \n'
p543
aS'RopeClimbing/v_RopeClimbing_g07_c02.avi          \n'
p544
aS'RopeClimbing/v_RopeClimbing_g07_c03.avi          \n'
p545
aS'RopeClimbing/v_RopeClimbing_g07_c04.avi          \n'
p546
aS'RopeClimbing/v_RopeClimbing_g07_c05.avi          \n'
p547
aS'SalsaSpin/v_SalsaSpin_g01_c01.avi                \n'
p548
aS'SalsaSpin/v_SalsaSpin_g01_c02.avi                \n'
p549
aS'SalsaSpin/v_SalsaSpin_g01_c03.avi                \n'
p550
aS'SalsaSpin/v_SalsaSpin_g01_c04.avi                \n'
p551
aS'SalsaSpin/v_SalsaSpin_g01_c05.avi                \n'
p552
aS'SalsaSpin/v_SalsaSpin_g01_c06.avi                \n'
p553
aS'SalsaSpin/v_SalsaSpin_g01_c07.avi                \n'
p554
aS'SalsaSpin/v_SalsaSpin_g02_c01.avi                \n'
p555
aS'SalsaSpin/v_SalsaSpin_g02_c02.avi                \n'
p556
aS'SalsaSpin/v_SalsaSpin_g02_c03.avi                \n'
p557
aS'SalsaSpin/v_SalsaSpin_g02_c04.avi                \n'
p558
aS'SalsaSpin/v_SalsaSpin_g02_c05.avi                \n'
p559
aS'SalsaSpin/v_SalsaSpin_g02_c06.avi                \n'
p560
aS'SalsaSpin/v_SalsaSpin_g02_c07.avi                \n'
p561
aS'SalsaSpin/v_SalsaSpin_g03_c01.avi                \n'
p562
aS'SalsaSpin/v_SalsaSpin_g03_c02.avi                \n'
p563
aS'SalsaSpin/v_SalsaSpin_g03_c03.avi                \n'
p564
aS'SalsaSpin/v_SalsaSpin_g03_c04.avi                \n'
p565
aS'SalsaSpin/v_SalsaSpin_g03_c05.avi                \n'
p566
aS'SalsaSpin/v_SalsaSpin_g03_c06.avi                \n'
p567
aS'SalsaSpin/v_SalsaSpin_g04_c01.avi                \n'
p568
aS'SalsaSpin/v_SalsaSpin_g04_c02.avi                \n'
p569
aS'SalsaSpin/v_SalsaSpin_g04_c03.avi                \n'
p570
aS'SalsaSpin/v_SalsaSpin_g04_c04.avi                \n'
p571
aS'SalsaSpin/v_SalsaSpin_g04_c05.avi                \n'
p572
aS'SalsaSpin/v_SalsaSpin_g04_c06.avi                \n'
p573
aS'SalsaSpin/v_SalsaSpin_g05_c01.avi                \n'
p574
aS'SalsaSpin/v_SalsaSpin_g05_c02.avi                \n'
p575
aS'SalsaSpin/v_SalsaSpin_g05_c03.avi                \n'
p576
aS'SalsaSpin/v_SalsaSpin_g05_c04.avi                \n'
p577
aS'SalsaSpin/v_SalsaSpin_g05_c05.avi                \n'
p578
aS'SalsaSpin/v_SalsaSpin_g05_c06.avi                \n'
p579
aS'SalsaSpin/v_SalsaSpin_g06_c01.avi                \n'
p580
aS'SalsaSpin/v_SalsaSpin_g06_c02.avi                \n'
p581
aS'SalsaSpin/v_SalsaSpin_g06_c03.avi                \n'
p582
aS'SalsaSpin/v_SalsaSpin_g06_c04.avi                \n'
p583
aS'SalsaSpin/v_SalsaSpin_g06_c05.avi                \n'
p584
aS'SalsaSpin/v_SalsaSpin_g07_c01.avi                \n'
p585
aS'SalsaSpin/v_SalsaSpin_g07_c02.avi                \n'
p586
aS'SalsaSpin/v_SalsaSpin_g07_c03.avi                \n'
p587
aS'SalsaSpin/v_SalsaSpin_g07_c04.avi                \n'
p588
aS'SalsaSpin/v_SalsaSpin_g07_c05.avi                \n'
p589
aS'SalsaSpin/v_SalsaSpin_g07_c06.avi                \n'
p590
aS'SkateBoarding/v_SkateBoarding_g01_c01.avi        \n'
p591
aS'SkateBoarding/v_SkateBoarding_g01_c02.avi        \n'
p592
aS'SkateBoarding/v_SkateBoarding_g01_c03.avi        \n'
p593
aS'SkateBoarding/v_SkateBoarding_g01_c04.avi        \n'
p594
aS'SkateBoarding/v_SkateBoarding_g02_c01.avi        \n'
p595
aS'SkateBoarding/v_SkateBoarding_g02_c02.avi        \n'
p596
aS'SkateBoarding/v_SkateBoarding_g02_c03.avi        \n'
p597
aS'SkateBoarding/v_SkateBoarding_g02_c04.avi        \n'
p598
aS'SkateBoarding/v_SkateBoarding_g02_c05.avi        \n'
p599
aS'SkateBoarding/v_SkateBoarding_g02_c06.avi        \n'
p600
aS'SkateBoarding/v_SkateBoarding_g03_c01.avi        \n'
p601
aS'SkateBoarding/v_SkateBoarding_g03_c02.avi        \n'
p602
aS'SkateBoarding/v_SkateBoarding_g03_c03.avi        \n'
p603
aS'SkateBoarding/v_SkateBoarding_g03_c04.avi        \n'
p604
aS'SkateBoarding/v_SkateBoarding_g04_c01.avi        \n'
p605
aS'SkateBoarding/v_SkateBoarding_g04_c02.avi        \n'
p606
aS'SkateBoarding/v_SkateBoarding_g04_c03.avi        \n'
p607
aS'SkateBoarding/v_SkateBoarding_g04_c04.avi        \n'
p608
aS'SkateBoarding/v_SkateBoarding_g04_c05.avi        \n'
p609
aS'SkateBoarding/v_SkateBoarding_g05_c01.avi        \n'
p610
aS'SkateBoarding/v_SkateBoarding_g05_c02.avi        \n'
p611
aS'SkateBoarding/v_SkateBoarding_g05_c03.avi        \n'
p612
aS'SkateBoarding/v_SkateBoarding_g05_c04.avi        \n'
p613
aS'SkateBoarding/v_SkateBoarding_g06_c01.avi        \n'
p614
aS'SkateBoarding/v_SkateBoarding_g06_c02.avi        \n'
p615
aS'SkateBoarding/v_SkateBoarding_g06_c03.avi        \n'
p616
aS'SkateBoarding/v_SkateBoarding_g06_c04.avi        \n'
p617
aS'SkateBoarding/v_SkateBoarding_g07_c01.avi        \n'
p618
aS'SkateBoarding/v_SkateBoarding_g07_c02.avi        \n'
p619
aS'SkateBoarding/v_SkateBoarding_g07_c03.avi        \n'
p620
aS'SkateBoarding/v_SkateBoarding_g07_c04.avi        \n'
p621
aS'SkateBoarding/v_SkateBoarding_g07_c05.avi        \n'
p622
aS'Skiing/v_Skiing_g01_c01.avi                      \n'
p623
aS'Skiing/v_Skiing_g01_c02.avi                      \n'
p624
aS'Skiing/v_Skiing_g01_c03.avi                      \n'
p625
aS'Skiing/v_Skiing_g01_c04.avi                      \n'
p626
aS'Skiing/v_Skiing_g01_c05.avi                      \n'
p627
aS'Skiing/v_Skiing_g01_c06.avi                      \n'
p628
aS'Skiing/v_Skiing_g02_c01.avi                      \n'
p629
aS'Skiing/v_Skiing_g02_c02.avi                      \n'
p630
aS'Skiing/v_Skiing_g02_c03.avi                      \n'
p631
aS'Skiing/v_Skiing_g02_c04.avi                      \n'
p632
aS'Skiing/v_Skiing_g02_c05.avi                      \n'
p633
aS'Skiing/v_Skiing_g03_c01.avi                      \n'
p634
aS'Skiing/v_Skiing_g03_c02.avi                      \n'
p635
aS'Skiing/v_Skiing_g03_c03.avi                      \n'
p636
aS'Skiing/v_Skiing_g03_c04.avi                      \n'
p637
aS'Skiing/v_Skiing_g03_c05.avi                      \n'
p638
aS'Skiing/v_Skiing_g03_c06.avi                      \n'
p639
aS'Skiing/v_Skiing_g03_c07.avi                      \n'
p640
aS'Skiing/v_Skiing_g04_c01.avi                      \n'
p641
aS'Skiing/v_Skiing_g04_c02.avi                      \n'
p642
aS'Skiing/v_Skiing_g04_c03.avi                      \n'
p643
aS'Skiing/v_Skiing_g04_c04.avi                      \n'
p644
aS'Skiing/v_Skiing_g04_c05.avi                      \n'
p645
aS'Skiing/v_Skiing_g04_c06.avi                      \n'
p646
aS'Skiing/v_Skiing_g04_c07.avi                      \n'
p647
aS'Skiing/v_Skiing_g05_c01.avi                      \n'
p648
aS'Skiing/v_Skiing_g05_c02.avi                      \n'
p649
aS'Skiing/v_Skiing_g05_c03.avi                      \n'
p650
aS'Skiing/v_Skiing_g05_c04.avi                      \n'
p651
aS'Skiing/v_Skiing_g06_c01.avi                      \n'
p652
aS'Skiing/v_Skiing_g06_c02.avi                      \n'
p653
aS'Skiing/v_Skiing_g06_c03.avi                      \n'
p654
aS'Skiing/v_Skiing_g06_c04.avi                      \n'
p655
aS'Skiing/v_Skiing_g06_c05.avi                      \n'
p656
aS'Skiing/v_Skiing_g06_c06.avi                      \n'
p657
aS'Skiing/v_Skiing_g06_c07.avi                      \n'
p658
aS'Skiing/v_Skiing_g07_c01.avi                      \n'
p659
aS'Skiing/v_Skiing_g07_c02.avi                      \n'
p660
aS'Skiing/v_Skiing_g07_c03.avi                      \n'
p661
aS'Skiing/v_Skiing_g07_c04.avi                      \n'
p662
aS'Skijet/v_Skijet_g01_c01.avi                      \n'
p663
aS'Skijet/v_Skijet_g01_c02.avi                      \n'
p664
aS'Skijet/v_Skijet_g01_c03.avi                      \n'
p665
aS'Skijet/v_Skijet_g01_c04.avi                      \n'
p666
aS'Skijet/v_Skijet_g02_c01.avi                      \n'
p667
aS'Skijet/v_Skijet_g02_c02.avi                      \n'
p668
aS'Skijet/v_Skijet_g02_c03.avi                      \n'
p669
aS'Skijet/v_Skijet_g02_c04.avi                      \n'
p670
aS'Skijet/v_Skijet_g03_c01.avi                      \n'
p671
aS'Skijet/v_Skijet_g03_c02.avi                      \n'
p672
aS'Skijet/v_Skijet_g03_c03.avi                      \n'
p673
aS'Skijet/v_Skijet_g03_c04.avi                      \n'
p674
aS'Skijet/v_Skijet_g04_c01.avi                      \n'
p675
aS'Skijet/v_Skijet_g04_c02.avi                      \n'
p676
aS'Skijet/v_Skijet_g04_c03.avi                      \n'
p677
aS'Skijet/v_Skijet_g04_c04.avi                      \n'
p678
aS'Skijet/v_Skijet_g05_c01.avi                      \n'
p679
aS'Skijet/v_Skijet_g05_c02.avi                      \n'
p680
aS'Skijet/v_Skijet_g05_c03.avi                      \n'
p681
aS'Skijet/v_Skijet_g05_c04.avi                      \n'
p682
aS'Skijet/v_Skijet_g06_c01.avi                      \n'
p683
aS'Skijet/v_Skijet_g06_c02.avi                      \n'
p684
aS'Skijet/v_Skijet_g06_c03.avi                      \n'
p685
aS'Skijet/v_Skijet_g06_c04.avi                      \n'
p686
aS'Skijet/v_Skijet_g07_c01.avi                      \n'
p687
aS'Skijet/v_Skijet_g07_c02.avi                      \n'
p688
aS'Skijet/v_Skijet_g07_c03.avi                      \n'
p689
aS'Skijet/v_Skijet_g07_c04.avi                      \n'
p690
aS'SoccerJuggling/v_SoccerJuggling_g01_c01.avi      \n'
p691
aS'SoccerJuggling/v_SoccerJuggling_g01_c02.avi      \n'
p692
aS'SoccerJuggling/v_SoccerJuggling_g01_c03.avi      \n'
p693
aS'SoccerJuggling/v_SoccerJuggling_g01_c04.avi      \n'
p694
aS'SoccerJuggling/v_SoccerJuggling_g01_c05.avi      \n'
p695
aS'SoccerJuggling/v_SoccerJuggling_g02_c01.avi      \n'
p696
aS'SoccerJuggling/v_SoccerJuggling_g02_c02.avi      \n'
p697
aS'SoccerJuggling/v_SoccerJuggling_g02_c03.avi      \n'
p698
aS'SoccerJuggling/v_SoccerJuggling_g02_c04.avi      \n'
p699
aS'SoccerJuggling/v_SoccerJuggling_g02_c05.avi      \n'
p700
aS'SoccerJuggling/v_SoccerJuggling_g02_c06.avi      \n'
p701
aS'SoccerJuggling/v_SoccerJuggling_g03_c01.avi      \n'
p702
aS'SoccerJuggling/v_SoccerJuggling_g03_c02.avi      \n'
p703
aS'SoccerJuggling/v_SoccerJuggling_g03_c03.avi      \n'
p704
aS'SoccerJuggling/v_SoccerJuggling_g03_c04.avi      \n'
p705
aS'SoccerJuggling/v_SoccerJuggling_g04_c01.avi      \n'
p706
aS'SoccerJuggling/v_SoccerJuggling_g04_c02.avi      \n'
p707
aS'SoccerJuggling/v_SoccerJuggling_g04_c03.avi      \n'
p708
aS'SoccerJuggling/v_SoccerJuggling_g04_c04.avi      \n'
p709
aS'SoccerJuggling/v_SoccerJuggling_g04_c05.avi      \n'
p710
aS'SoccerJuggling/v_SoccerJuggling_g04_c06.avi      \n'
p711
aS'SoccerJuggling/v_SoccerJuggling_g05_c01.avi      \n'
p712
aS'SoccerJuggling/v_SoccerJuggling_g05_c02.avi      \n'
p713
aS'SoccerJuggling/v_SoccerJuggling_g05_c03.avi      \n'
p714
aS'SoccerJuggling/v_SoccerJuggling_g05_c04.avi      \n'
p715
aS'SoccerJuggling/v_SoccerJuggling_g05_c05.avi      \n'
p716
aS'SoccerJuggling/v_SoccerJuggling_g05_c06.avi      \n'
p717
aS'SoccerJuggling/v_SoccerJuggling_g06_c01.avi      \n'
p718
aS'SoccerJuggling/v_SoccerJuggling_g06_c02.avi      \n'
p719
aS'SoccerJuggling/v_SoccerJuggling_g06_c03.avi      \n'
p720
aS'SoccerJuggling/v_SoccerJuggling_g06_c04.avi      \n'
p721
aS'SoccerJuggling/v_SoccerJuggling_g06_c05.avi      \n'
p722
aS'SoccerJuggling/v_SoccerJuggling_g07_c01.avi      \n'
p723
aS'SoccerJuggling/v_SoccerJuggling_g07_c02.avi      \n'
p724
aS'SoccerJuggling/v_SoccerJuggling_g07_c03.avi      \n'
p725
aS'SoccerJuggling/v_SoccerJuggling_g07_c04.avi      \n'
p726
aS'SoccerJuggling/v_SoccerJuggling_g07_c05.avi      \n'
p727
aS'SoccerJuggling/v_SoccerJuggling_g07_c06.avi      \n'
p728
aS'SoccerJuggling/v_SoccerJuggling_g07_c07.avi      \n'
p729
aS'Surfing/v_Surfing_g01_c01.avi                    \n'
p730
aS'Surfing/v_Surfing_g01_c02.avi                    \n'
p731
aS'Surfing/v_Surfing_g01_c03.avi                    \n'
p732
aS'Surfing/v_Surfing_g01_c04.avi                    \n'
p733
aS'Surfing/v_Surfing_g01_c05.avi                    \n'
p734
aS'Surfing/v_Surfing_g01_c06.avi                    \n'
p735
aS'Surfing/v_Surfing_g01_c07.avi                    \n'
p736
aS'Surfing/v_Surfing_g02_c01.avi                    \n'
p737
aS'Surfing/v_Surfing_g02_c02.avi                    \n'
p738
aS'Surfing/v_Surfing_g02_c03.avi                    \n'
p739
aS'Surfing/v_Surfing_g02_c04.avi                    \n'
p740
aS'Surfing/v_Surfing_g02_c05.avi                    \n'
p741
aS'Surfing/v_Surfing_g02_c06.avi                    \n'
p742
aS'Surfing/v_Surfing_g03_c01.avi                    \n'
p743
aS'Surfing/v_Surfing_g03_c02.avi                    \n'
p744
aS'Surfing/v_Surfing_g03_c03.avi                    \n'
p745
aS'Surfing/v_Surfing_g03_c04.avi                    \n'
p746
aS'Surfing/v_Surfing_g04_c01.avi                    \n'
p747
aS'Surfing/v_Surfing_g04_c02.avi                    \n'
p748
aS'Surfing/v_Surfing_g04_c03.avi                    \n'
p749
aS'Surfing/v_Surfing_g04_c04.avi                    \n'
p750
aS'Surfing/v_Surfing_g05_c01.avi                    \n'
p751
aS'Surfing/v_Surfing_g05_c02.avi                    \n'
p752
aS'Surfing/v_Surfing_g05_c03.avi                    \n'
p753
aS'Surfing/v_Surfing_g05_c04.avi                    \n'
p754
aS'Surfing/v_Surfing_g06_c01.avi                    \n'
p755
aS'Surfing/v_Surfing_g06_c02.avi                    \n'
p756
aS'Surfing/v_Surfing_g06_c03.avi                    \n'
p757
aS'Surfing/v_Surfing_g06_c04.avi                    \n'
p758
aS'Surfing/v_Surfing_g07_c01.avi                    \n'
p759
aS'Surfing/v_Surfing_g07_c02.avi                    \n'
p760
aS'Surfing/v_Surfing_g07_c03.avi                    \n'
p761
aS'Surfing/v_Surfing_g07_c04.avi                    \n'
p762
aS'TennisSwing/v_TennisSwing_g01_c01.avi            \n'
p763
aS'TennisSwing/v_TennisSwing_g01_c02.avi            \n'
p764
aS'TennisSwing/v_TennisSwing_g01_c03.avi            \n'
p765
aS'TennisSwing/v_TennisSwing_g01_c04.avi            \n'
p766
aS'TennisSwing/v_TennisSwing_g01_c05.avi            \n'
p767
aS'TennisSwing/v_TennisSwing_g01_c06.avi            \n'
p768
aS'TennisSwing/v_TennisSwing_g01_c07.avi            \n'
p769
aS'TennisSwing/v_TennisSwing_g02_c01.avi            \n'
p770
aS'TennisSwing/v_TennisSwing_g02_c02.avi            \n'
p771
aS'TennisSwing/v_TennisSwing_g02_c03.avi            \n'
p772
aS'TennisSwing/v_TennisSwing_g02_c04.avi            \n'
p773
aS'TennisSwing/v_TennisSwing_g02_c05.avi            \n'
p774
aS'TennisSwing/v_TennisSwing_g02_c06.avi            \n'
p775
aS'TennisSwing/v_TennisSwing_g02_c07.avi            \n'
p776
aS'TennisSwing/v_TennisSwing_g03_c01.avi            \n'
p777
aS'TennisSwing/v_TennisSwing_g03_c02.avi            \n'
p778
aS'TennisSwing/v_TennisSwing_g03_c03.avi            \n'
p779
aS'TennisSwing/v_TennisSwing_g03_c04.avi            \n'
p780
aS'TennisSwing/v_TennisSwing_g03_c05.avi            \n'
p781
aS'TennisSwing/v_TennisSwing_g03_c06.avi            \n'
p782
aS'TennisSwing/v_TennisSwing_g03_c07.avi            \n'
p783
aS'TennisSwing/v_TennisSwing_g04_c01.avi            \n'
p784
aS'TennisSwing/v_TennisSwing_g04_c02.avi            \n'
p785
aS'TennisSwing/v_TennisSwing_g04_c03.avi            \n'
p786
aS'TennisSwing/v_TennisSwing_g04_c04.avi            \n'
p787
aS'TennisSwing/v_TennisSwing_g04_c05.avi            \n'
p788
aS'TennisSwing/v_TennisSwing_g04_c06.avi            \n'
p789
aS'TennisSwing/v_TennisSwing_g04_c07.avi            \n'
p790
aS'TennisSwing/v_TennisSwing_g05_c01.avi            \n'
p791
aS'TennisSwing/v_TennisSwing_g05_c02.avi            \n'
p792
aS'TennisSwing/v_TennisSwing_g05_c03.avi            \n'
p793
aS'TennisSwing/v_TennisSwing_g05_c04.avi            \n'
p794
aS'TennisSwing/v_TennisSwing_g05_c05.avi            \n'
p795
aS'TennisSwing/v_TennisSwing_g05_c06.avi            \n'
p796
aS'TennisSwing/v_TennisSwing_g05_c07.avi            \n'
p797
aS'TennisSwing/v_TennisSwing_g06_c01.avi            \n'
p798
aS'TennisSwing/v_TennisSwing_g06_c02.avi            \n'
p799
aS'TennisSwing/v_TennisSwing_g06_c03.avi            \n'
p800
aS'TennisSwing/v_TennisSwing_g06_c04.avi            \n'
p801
aS'TennisSwing/v_TennisSwing_g06_c05.avi            \n'
p802
aS'TennisSwing/v_TennisSwing_g06_c06.avi            \n'
p803
aS'TennisSwing/v_TennisSwing_g06_c07.avi            \n'
p804
aS'TennisSwing/v_TennisSwing_g07_c01.avi            \n'
p805
aS'TennisSwing/v_TennisSwing_g07_c02.avi            \n'
p806
aS'TennisSwing/v_TennisSwing_g07_c03.avi            \n'
p807
aS'TennisSwing/v_TennisSwing_g07_c04.avi            \n'
p808
aS'TennisSwing/v_TennisSwing_g07_c05.avi            \n'
p809
aS'TennisSwing/v_TennisSwing_g07_c06.avi            \n'
p810
aS'TennisSwing/v_TennisSwing_g07_c07.avi            \n'
p811
aS'TrampolineJumping/v_TrampolineJumping_g01_c01.avi\n'
p812
aS'TrampolineJumping/v_TrampolineJumping_g01_c02.avi\n'
p813
aS'TrampolineJumping/v_TrampolineJumping_g01_c03.avi\n'
p814
aS'TrampolineJumping/v_TrampolineJumping_g01_c04.avi\n'
p815
aS'TrampolineJumping/v_TrampolineJumping_g02_c01.avi\n'
p816
aS'TrampolineJumping/v_TrampolineJumping_g02_c02.avi\n'
p817
aS'TrampolineJumping/v_TrampolineJumping_g02_c03.avi\n'
p818
aS'TrampolineJumping/v_TrampolineJumping_g02_c04.avi\n'
p819
aS'TrampolineJumping/v_TrampolineJumping_g02_c05.avi\n'
p820
aS'TrampolineJumping/v_TrampolineJumping_g02_c06.avi\n'
p821
aS'TrampolineJumping/v_TrampolineJumping_g03_c01.avi\n'
p822
aS'TrampolineJumping/v_TrampolineJumping_g03_c02.avi\n'
p823
aS'TrampolineJumping/v_TrampolineJumping_g03_c03.avi\n'
p824
aS'TrampolineJumping/v_TrampolineJumping_g03_c04.avi\n'
p825
aS'TrampolineJumping/v_TrampolineJumping_g04_c01.avi\n'
p826
aS'TrampolineJumping/v_TrampolineJumping_g04_c02.avi\n'
p827
aS'TrampolineJumping/v_TrampolineJumping_g04_c03.avi\n'
p828
aS'TrampolineJumping/v_TrampolineJumping_g04_c04.avi\n'
p829
aS'TrampolineJumping/v_TrampolineJumping_g04_c05.avi\n'
p830
aS'TrampolineJumping/v_TrampolineJumping_g05_c01.avi\n'
p831
aS'TrampolineJumping/v_TrampolineJumping_g05_c02.avi\n'
p832
aS'TrampolineJumping/v_TrampolineJumping_g05_c03.avi\n'
p833
aS'TrampolineJumping/v_TrampolineJumping_g05_c04.avi\n'
p834
aS'TrampolineJumping/v_TrampolineJumping_g06_c01.avi\n'
p835
aS'TrampolineJumping/v_TrampolineJumping_g06_c02.avi\n'
p836
aS'TrampolineJumping/v_TrampolineJumping_g06_c03.avi\n'
p837
aS'TrampolineJumping/v_TrampolineJumping_g06_c04.avi\n'
p838
aS'TrampolineJumping/v_TrampolineJumping_g07_c01.avi\n'
p839
aS'TrampolineJumping/v_TrampolineJumping_g07_c02.avi\n'
p840
aS'TrampolineJumping/v_TrampolineJumping_g07_c03.avi\n'
p841
aS'TrampolineJumping/v_TrampolineJumping_g07_c04.avi\n'
p842
aS'TrampolineJumping/v_TrampolineJumping_g07_c05.avi\n'
p843
aS'VolleyballSpiking/v_VolleyballSpiking_g01_c01.avi\n'
p844
aS'VolleyballSpiking/v_VolleyballSpiking_g01_c02.avi\n'
p845
aS'VolleyballSpiking/v_VolleyballSpiking_g01_c03.avi\n'
p846
aS'VolleyballSpiking/v_VolleyballSpiking_g01_c04.avi\n'
p847
aS'VolleyballSpiking/v_VolleyballSpiking_g02_c01.avi\n'
p848
aS'VolleyballSpiking/v_VolleyballSpiking_g02_c02.avi\n'
p849
aS'VolleyballSpiking/v_VolleyballSpiking_g02_c03.avi\n'
p850
aS'VolleyballSpiking/v_VolleyballSpiking_g02_c04.avi\n'
p851
aS'VolleyballSpiking/v_VolleyballSpiking_g03_c01.avi\n'
p852
aS'VolleyballSpiking/v_VolleyballSpiking_g03_c02.avi\n'
p853
aS'VolleyballSpiking/v_VolleyballSpiking_g03_c03.avi\n'
p854
aS'VolleyballSpiking/v_VolleyballSpiking_g03_c04.avi\n'
p855
aS'VolleyballSpiking/v_VolleyballSpiking_g04_c01.avi\n'
p856
aS'VolleyballSpiking/v_VolleyballSpiking_g04_c02.avi\n'
p857
aS'VolleyballSpiking/v_VolleyballSpiking_g04_c03.avi\n'
p858
aS'VolleyballSpiking/v_VolleyballSpiking_g04_c04.avi\n'
p859
aS'VolleyballSpiking/v_VolleyballSpiking_g04_c05.avi\n'
p860
aS'VolleyballSpiking/v_VolleyballSpiking_g04_c06.avi\n'
p861
aS'VolleyballSpiking/v_VolleyballSpiking_g04_c07.avi\n'
p862
aS'VolleyballSpiking/v_VolleyballSpiking_g05_c01.avi\n'
p863
aS'VolleyballSpiking/v_VolleyballSpiking_g05_c02.avi\n'
p864
aS'VolleyballSpiking/v_VolleyballSpiking_g05_c03.avi\n'
p865
aS'VolleyballSpiking/v_VolleyballSpiking_g05_c04.avi\n'
p866
aS'VolleyballSpiking/v_VolleyballSpiking_g05_c05.avi\n'
p867
aS'VolleyballSpiking/v_VolleyballSpiking_g06_c01.avi\n'
p868
aS'VolleyballSpiking/v_VolleyballSpiking_g06_c02.avi\n'
p869
aS'VolleyballSpiking/v_VolleyballSpiking_g06_c03.avi\n'
p870
aS'VolleyballSpiking/v_VolleyballSpiking_g06_c04.avi\n'
p871
aS'VolleyballSpiking/v_VolleyballSpiking_g07_c01.avi\n'
p872
aS'VolleyballSpiking/v_VolleyballSpiking_g07_c02.avi\n'
p873
aS'VolleyballSpiking/v_VolleyballSpiking_g07_c03.avi\n'
p874
aS'VolleyballSpiking/v_VolleyballSpiking_g07_c04.avi\n'
p875
aS'VolleyballSpiking/v_VolleyballSpiking_g07_c05.avi\n'
p876
aS'VolleyballSpiking/v_VolleyballSpiking_g07_c06.avi\n'
p877
aS'VolleyballSpiking/v_VolleyballSpiking_g07_c07.avi\n'
p878
aS'WalkingWithDog/v_WalkingWithDog_g01_c01.avi      \n'
p879
aS'WalkingWithDog/v_WalkingWithDog_g01_c02.avi      \n'
p880
aS'WalkingWithDog/v_WalkingWithDog_g01_c03.avi      \n'
p881
aS'WalkingWithDog/v_WalkingWithDog_g01_c04.avi      \n'
p882
aS'WalkingWithDog/v_WalkingWithDog_g02_c01.avi      \n'
p883
aS'WalkingWithDog/v_WalkingWithDog_g02_c02.avi      \n'
p884
aS'WalkingWithDog/v_WalkingWithDog_g02_c03.avi      \n'
p885
aS'WalkingWithDog/v_WalkingWithDog_g02_c04.avi      \n'
p886
aS'WalkingWithDog/v_WalkingWithDog_g02_c05.avi      \n'
p887
aS'WalkingWithDog/v_WalkingWithDog_g02_c06.avi      \n'
p888
aS'WalkingWithDog/v_WalkingWithDog_g03_c01.avi      \n'
p889
aS'WalkingWithDog/v_WalkingWithDog_g03_c02.avi      \n'
p890
aS'WalkingWithDog/v_WalkingWithDog_g03_c03.avi      \n'
p891
aS'WalkingWithDog/v_WalkingWithDog_g03_c04.avi      \n'
p892
aS'WalkingWithDog/v_WalkingWithDog_g03_c05.avi      \n'
p893
aS'WalkingWithDog/v_WalkingWithDog_g04_c01.avi      \n'
p894
aS'WalkingWithDog/v_WalkingWithDog_g04_c02.avi      \n'
p895
aS'WalkingWithDog/v_WalkingWithDog_g04_c03.avi      \n'
p896
aS'WalkingWithDog/v_WalkingWithDog_g04_c04.avi      \n'
p897
aS'WalkingWithDog/v_WalkingWithDog_g04_c05.avi      \n'
p898
aS'WalkingWithDog/v_WalkingWithDog_g05_c01.avi      \n'
p899
aS'WalkingWithDog/v_WalkingWithDog_g05_c02.avi      \n'
p900
aS'WalkingWithDog/v_WalkingWithDog_g05_c03.avi      \n'
p901
aS'WalkingWithDog/v_WalkingWithDog_g05_c04.avi      \n'
p902
aS'WalkingWithDog/v_WalkingWithDog_g05_c05.avi      \n'
p903
aS'WalkingWithDog/v_WalkingWithDog_g06_c01.avi      \n'
p904
aS'WalkingWithDog/v_WalkingWithDog_g06_c02.avi      \n'
p905
aS'WalkingWithDog/v_WalkingWithDog_g06_c03.avi      \n'
p906
aS'WalkingWithDog/v_WalkingWithDog_g06_c04.avi      \n'
p907
aS'WalkingWithDog/v_WalkingWithDog_g06_c05.avi      \n'
p908
aS'WalkingWithDog/v_WalkingWithDog_g07_c01.avi      \n'
p909
aS'WalkingWithDog/v_WalkingWithDog_g07_c02.avi      \n'
p910
aS'WalkingWithDog/v_WalkingWithDog_g07_c03.avi      \n'
p911
aS'WalkingWithDog/v_WalkingWithDog_g07_c04.avi      \n'
p912
aS'WalkingWithDog/v_WalkingWithDog_g07_c05.avi      \n'
p913
aS'WalkingWithDog/v_WalkingWithDog_g07_c06.avi      '
p914
a.